Archive member included to satisfy reference by file (symbol)

/home/jingxu/workspace/ledgerApp/gcc-arm-none-eabi-10-2020-q4-major-x86_64-linux/gcc-arm-none-eabi-10-2020-q4-major/bin/../lib/gcc/arm-none-eabi/10.2.1/thumb/v6-m/nofp/libgcc.a(_udivsi3.o)
                              obj/cmd_signMessage.o (__aeabi_uidiv)
/home/jingxu/workspace/ledgerApp/gcc-arm-none-eabi-10-2020-q4-major-x86_64-linux/gcc-arm-none-eabi-10-2020-q4-major/bin/../lib/gcc/arm-none-eabi/10.2.1/thumb/v6-m/nofp/libgcc.a(_divsi3.o)
                              obj/base64.o (__aeabi_idiv)
/home/jingxu/workspace/ledgerApp/gcc-arm-none-eabi-10-2020-q4-major-x86_64-linux/gcc-arm-none-eabi-10-2020-q4-major/bin/../lib/gcc/arm-none-eabi/10.2.1/thumb/v6-m/nofp/libgcc.a(_dvmd_tls.o)
                              /home/jingxu/workspace/ledgerApp/gcc-arm-none-eabi-10-2020-q4-major-x86_64-linux/gcc-arm-none-eabi-10-2020-q4-major/bin/../lib/gcc/arm-none-eabi/10.2.1/thumb/v6-m/nofp/libgcc.a(_udivsi3.o) (__aeabi_idiv0)
/home/jingxu/workspace/ledgerApp/gcc-arm-none-eabi-10-2020-q4-major-x86_64-linux/gcc-arm-none-eabi-10-2020-q4-major/bin/../lib/gcc/arm-none-eabi/10.2.1/thumb/v6-m/nofp/libgcc.a(_lshrdi3.o)
                              obj/poorstream.o (__aeabi_llsr)
/home/jingxu/workspace/ledgerApp/gcc-arm-none-eabi-10-2020-q4-major-x86_64-linux/gcc-arm-none-eabi-10-2020-q4-major/bin/../lib/gcc/arm-none-eabi/10.2.1/thumb/v6-m/nofp/libgcc.a(_ashldi3.o)
                              obj/poorstream.o (__aeabi_llsl)
/home/jingxu/workspace/ledgerApp/gcc-arm-none-eabi-10-2020-q4-major-x86_64-linux/gcc-arm-none-eabi-10-2020-q4-major/bin/../lib/gcc/arm-none-eabi/10.2.1/thumb/v6-m/nofp/libgcc.a(_muldi3.o)
                              obj/uint256.o (__aeabi_lmul)
/home/jingxu/workspace/ledgerApp/gcc-arm-none-eabi-10-2020-q4-major-x86_64-linux/gcc-arm-none-eabi-10-2020-q4-major/bin/../lib/gcc/arm-none-eabi/10.2.1/../../../../arm-none-eabi/lib/thumb/v6-m/nofp/libc.a(lib_a-aeabi_memclr.o)
                              obj/compound_plugin.o (__aeabi_memclr)
/home/jingxu/workspace/ledgerApp/gcc-arm-none-eabi-10-2020-q4-major-x86_64-linux/gcc-arm-none-eabi-10-2020-q4-major/bin/../lib/gcc/arm-none-eabi/10.2.1/../../../../arm-none-eabi/lib/thumb/v6-m/nofp/libc.a(lib_a-aeabi_memcpy.o)
                              obj/cmd_stark_unsafe_sign.o (__aeabi_memcpy)
/home/jingxu/workspace/ledgerApp/gcc-arm-none-eabi-10-2020-q4-major-x86_64-linux/gcc-arm-none-eabi-10-2020-q4-major/bin/../lib/gcc/arm-none-eabi/10.2.1/../../../../arm-none-eabi/lib/thumb/v6-m/nofp/libc.a(lib_a-aeabi_memmove.o)
                              obj/cmd_provideTokenInfo.o (__aeabi_memmove)
/home/jingxu/workspace/ledgerApp/gcc-arm-none-eabi-10-2020-q4-major-x86_64-linux/gcc-arm-none-eabi-10-2020-q4-major/bin/../lib/gcc/arm-none-eabi/10.2.1/../../../../arm-none-eabi/lib/thumb/v6-m/nofp/libc.a(lib_a-aeabi_memset.o)
                              obj/ethUtils.o (__aeabi_memset)
/home/jingxu/workspace/ledgerApp/gcc-arm-none-eabi-10-2020-q4-major-x86_64-linux/gcc-arm-none-eabi-10-2020-q4-major/bin/../lib/gcc/arm-none-eabi/10.2.1/../../../../arm-none-eabi/lib/thumb/v6-m/nofp/libc.a(lib_a-explicit_bzero.o)
                              obj/cmd_getPublicKey.o (explicit_bzero)
/home/jingxu/workspace/ledgerApp/gcc-arm-none-eabi-10-2020-q4-major-x86_64-linux/gcc-arm-none-eabi-10-2020-q4-major/bin/../lib/gcc/arm-none-eabi/10.2.1/../../../../arm-none-eabi/lib/thumb/v6-m/nofp/libc.a(lib_a-memcmp.o)
                              obj/cmd_stark_provideQuantum.o (memcmp)
/home/jingxu/workspace/ledgerApp/gcc-arm-none-eabi-10-2020-q4-major-x86_64-linux/gcc-arm-none-eabi-10-2020-q4-major/bin/../lib/gcc/arm-none-eabi/10.2.1/../../../../arm-none-eabi/lib/thumb/v6-m/nofp/libc.a(lib_a-memcpy-stub.o)
                              /home/jingxu/workspace/ledgerApp/gcc-arm-none-eabi-10-2020-q4-major-x86_64-linux/gcc-arm-none-eabi-10-2020-q4-major/bin/../lib/gcc/arm-none-eabi/10.2.1/../../../../arm-none-eabi/lib/thumb/v6-m/nofp/libc.a(lib_a-aeabi_memcpy.o) (memcpy)
/home/jingxu/workspace/ledgerApp/gcc-arm-none-eabi-10-2020-q4-major-x86_64-linux/gcc-arm-none-eabi-10-2020-q4-major/bin/../lib/gcc/arm-none-eabi/10.2.1/../../../../arm-none-eabi/lib/thumb/v6-m/nofp/libc.a(lib_a-memmove.o)
                              /home/jingxu/workspace/ledgerApp/gcc-arm-none-eabi-10-2020-q4-major-x86_64-linux/gcc-arm-none-eabi-10-2020-q4-major/bin/../lib/gcc/arm-none-eabi/10.2.1/../../../../arm-none-eabi/lib/thumb/v6-m/nofp/libc.a(lib_a-aeabi_memmove.o) (memmove)
/home/jingxu/workspace/ledgerApp/gcc-arm-none-eabi-10-2020-q4-major-x86_64-linux/gcc-arm-none-eabi-10-2020-q4-major/bin/../lib/gcc/arm-none-eabi/10.2.1/../../../../arm-none-eabi/lib/thumb/v6-m/nofp/libc.a(lib_a-memset.o)
                              /home/jingxu/workspace/ledgerApp/gcc-arm-none-eabi-10-2020-q4-major-x86_64-linux/gcc-arm-none-eabi-10-2020-q4-major/bin/../lib/gcc/arm-none-eabi/10.2.1/../../../../arm-none-eabi/lib/thumb/v6-m/nofp/libc.a(lib_a-aeabi_memset.o) (memset)
/home/jingxu/workspace/ledgerApp/gcc-arm-none-eabi-10-2020-q4-major-x86_64-linux/gcc-arm-none-eabi-10-2020-q4-major/bin/../lib/gcc/arm-none-eabi/10.2.1/../../../../arm-none-eabi/lib/thumb/v6-m/nofp/libc.a(lib_a-setjmp.o)
                              obj/ethUstream.o (setjmp)
/home/jingxu/workspace/ledgerApp/gcc-arm-none-eabi-10-2020-q4-major-x86_64-linux/gcc-arm-none-eabi-10-2020-q4-major/bin/../lib/gcc/arm-none-eabi/10.2.1/../../../../arm-none-eabi/lib/thumb/v6-m/nofp/libc.a(lib_a-strcat.o)
                              obj/compound_plugin.o (strcat)
/home/jingxu/workspace/ledgerApp/gcc-arm-none-eabi-10-2020-q4-major-x86_64-linux/gcc-arm-none-eabi-10-2020-q4-major/bin/../lib/gcc/arm-none-eabi/10.2.1/../../../../arm-none-eabi/lib/thumb/v6-m/nofp/libc.a(lib_a-strcmp.o)
                              obj/eth_plugin_handler.o (strcmp)
/home/jingxu/workspace/ledgerApp/gcc-arm-none-eabi-10-2020-q4-major-x86_64-linux/gcc-arm-none-eabi-10-2020-q4-major/bin/../lib/gcc/arm-none-eabi/10.2.1/../../../../arm-none-eabi/lib/thumb/v6-m/nofp/libc.a(lib_a-strcpy.o)
                              obj/compound_plugin.o (strcpy)
/home/jingxu/workspace/ledgerApp/gcc-arm-none-eabi-10-2020-q4-major-x86_64-linux/gcc-arm-none-eabi-10-2020-q4-major/bin/../lib/gcc/arm-none-eabi/10.2.1/../../../../arm-none-eabi/lib/thumb/v6-m/nofp/libc.a(lib_a-strlen-stub.o)
                              obj/compound_plugin.o (strlen)
/home/jingxu/workspace/ledgerApp/gcc-arm-none-eabi-10-2020-q4-major-x86_64-linux/gcc-arm-none-eabi-10-2020-q4-major/bin/../lib/gcc/arm-none-eabi/10.2.1/../../../../arm-none-eabi/lib/thumb/v6-m/nofp/libc.a(lib_a-strncmp.o)
                              obj/compound_plugin.o (strncmp)
/home/jingxu/workspace/ledgerApp/gcc-arm-none-eabi-10-2020-q4-major-x86_64-linux/gcc-arm-none-eabi-10-2020-q4-major/bin/../lib/gcc/arm-none-eabi/10.2.1/../../../../arm-none-eabi/lib/thumb/v6-m/nofp/libc.a(lib_a-strncpy.o)
                              obj/handle_swap_sign_transaction.o (strncpy)
/home/jingxu/workspace/ledgerApp/gcc-arm-none-eabi-10-2020-q4-major-x86_64-linux/gcc-arm-none-eabi-10-2020-q4-major/bin/../lib/gcc/arm-none-eabi/10.2.1/../../../../arm-none-eabi/lib/thumb/v6-m/nofp/libc.a(lib_a-strnlen.o)
                              obj/compound_plugin.o (strnlen)
/home/jingxu/workspace/ledgerApp/gcc-arm-none-eabi-10-2020-q4-major-x86_64-linux/gcc-arm-none-eabi-10-2020-q4-major/bin/../lib/gcc/arm-none-eabi/10.2.1/../../../../arm-none-eabi/lib/thumb/v6-m/nofp/libc.a(lib_a-bzero.o)
                              /home/jingxu/workspace/ledgerApp/gcc-arm-none-eabi-10-2020-q4-major-x86_64-linux/gcc-arm-none-eabi-10-2020-q4-major/bin/../lib/gcc/arm-none-eabi/10.2.1/../../../../arm-none-eabi/lib/thumb/v6-m/nofp/libc.a(lib_a-explicit_bzero.o) (bzero)

Discarded input sections

 .text          0x0000000000000000        0x0 obj/base64.o
 .text.Base64encode_len
                0x0000000000000000       0x10 obj/base64.o
 .ARM.exidx.text.Base64encode_len
                0x0000000000000000        0x8 obj/base64.o
 .llvm_addrsig  0x0000000000000000        0x0 obj/base64.o
 .text          0x0000000000000000        0x0 obj/checks.o
 .llvm_addrsig  0x0000000000000000        0x6 obj/checks.o
 .text          0x0000000000000000        0x0 obj/cmd_getAppConfiguration.o
 .llvm_addrsig  0x0000000000000000        0x1 obj/cmd_getAppConfiguration.o
 .text          0x0000000000000000        0x0 obj/cmd_getEth2PublicKey.o
 .comment       0x0000000000000000       0x2e obj/cmd_getEth2PublicKey.o
 .note.GNU-stack
                0x0000000000000000        0x0 obj/cmd_getEth2PublicKey.o
 .ARM.attributes
                0x0000000000000000       0x41 obj/cmd_getEth2PublicKey.o
 .llvm_addrsig  0x0000000000000000        0x0 obj/cmd_getEth2PublicKey.o
 .text          0x0000000000000000        0x0 obj/cmd_getPublicKey.o
 .llvm_addrsig  0x0000000000000000        0x4 obj/cmd_getPublicKey.o
 .text          0x0000000000000000        0x0 obj/cmd_provideTokenInfo.o
 .llvm_addrsig  0x0000000000000000        0x1 obj/cmd_provideTokenInfo.o
 .text          0x0000000000000000        0x0 obj/cmd_setEth2WithdrawalIndex.o
 .comment       0x0000000000000000       0x2e obj/cmd_setEth2WithdrawalIndex.o
 .note.GNU-stack
                0x0000000000000000        0x0 obj/cmd_setEth2WithdrawalIndex.o
 .ARM.attributes
                0x0000000000000000       0x41 obj/cmd_setEth2WithdrawalIndex.o
 .llvm_addrsig  0x0000000000000000        0x0 obj/cmd_setEth2WithdrawalIndex.o
 .text          0x0000000000000000        0x0 obj/cmd_signMessage.o
 .llvm_addrsig  0x0000000000000000        0x6 obj/cmd_signMessage.o
 .text          0x0000000000000000        0x0 obj/cmd_signMessage712.o
 .llvm_addrsig  0x0000000000000000        0x1 obj/cmd_signMessage712.o
 .text          0x0000000000000000        0x0 obj/cmd_signTx.o
 .llvm_addrsig  0x0000000000000000        0x4 obj/cmd_signTx.o
 .text          0x0000000000000000        0x0 obj/cmd_stark_getPublicKey.o
 .llvm_addrsig  0x0000000000000000        0x3 obj/cmd_stark_getPublicKey.o
 .text          0x0000000000000000        0x0 obj/cmd_stark_provideQuantum.o
 .llvm_addrsig  0x0000000000000000        0x1 obj/cmd_stark_provideQuantum.o
 .text          0x0000000000000000        0x0 obj/cmd_stark_sign.o
 .llvm_addrsig  0x0000000000000000       0x14 obj/cmd_stark_sign.o
 .text          0x0000000000000000        0x0 obj/cmd_stark_unsafe_sign.o
 .llvm_addrsig  0x0000000000000000        0x2 obj/cmd_stark_unsafe_sign.o
 .text          0x0000000000000000        0x0 obj/compound_plugin.o
 .llvm_addrsig  0x0000000000000000        0x2 obj/compound_plugin.o
 .text          0x0000000000000000        0x0 obj/cx.o
 .text.cx_rng_u32_range_func
                0x0000000000000000       0x3c obj/cx.o
 .ARM.exidx.text.cx_rng_u32_range_func
                0x0000000000000000        0x8 obj/cx.o
 .text.cx_rng_u32_range
                0x0000000000000000       0x3a obj/cx.o
 .ARM.exidx.text.cx_rng_u32_range
                0x0000000000000000        0x8 obj/cx.o
 .debug_str     0x0000000000000000      0x128 obj/cx.o
 .debug_loc     0x0000000000000000      0x170 obj/cx.o
 .debug_abbrev  0x0000000000000000       0xc4 obj/cx.o
 .debug_info    0x0000000000000000      0x174 obj/cx.o
 .debug_ranges  0x0000000000000000       0x18 obj/cx.o
 .debug_macinfo
                0x0000000000000000        0x1 obj/cx.o
 .comment       0x0000000000000000       0x2e obj/cx.o
 .note.GNU-stack
                0x0000000000000000        0x0 obj/cx.o
 .ARM.attributes
                0x0000000000000000       0x43 obj/cx.o
 .debug_frame   0x0000000000000000       0x4c obj/cx.o
 .debug_line    0x0000000000000000      0x152 obj/cx.o
 .llvm_addrsig  0x0000000000000000        0x0 obj/cx.o
 .text          0x0000000000000000        0x0 obj/cx_compliance_141.o
 .comment       0x0000000000000000       0x2e obj/cx_compliance_141.o
 .note.GNU-stack
                0x0000000000000000        0x0 obj/cx_compliance_141.o
 .ARM.attributes
                0x0000000000000000       0x41 obj/cx_compliance_141.o
 .llvm_addrsig  0x0000000000000000        0x0 obj/cx_compliance_141.o
 .text          0x0000000000000000        0x0 obj/erc20_plugin.o
 .llvm_addrsig  0x0000000000000000        0x2 obj/erc20_plugin.o
 .text          0x0000000000000000        0x0 obj/erc721_plugin.o
 .llvm_addrsig  0x0000000000000000        0x2 obj/erc721_plugin.o
 .text          0x0000000000000000        0x0 obj/eth2_plugin.o
 .comment       0x0000000000000000       0x2e obj/eth2_plugin.o
 .note.GNU-stack
                0x0000000000000000        0x0 obj/eth2_plugin.o
 .ARM.attributes
                0x0000000000000000       0x41 obj/eth2_plugin.o
 .llvm_addrsig  0x0000000000000000        0x0 obj/eth2_plugin.o
 .text          0x0000000000000000        0x0 obj/ethUstream.o
 .llvm_addrsig  0x0000000000000000        0x0 obj/ethUstream.o
 .text          0x0000000000000000        0x0 obj/ethUtils.o
 .text.getEthAddressFromKey
                0x0000000000000000       0x3c obj/ethUtils.o
 .ARM.exidx.text.getEthAddressFromKey
                0x0000000000000000        0x8 obj/ethUtils.o
 .llvm_addrsig  0x0000000000000000        0x0 obj/ethUtils.o
 .text          0x0000000000000000        0x0 obj/eth_plugin_handler.o
 .llvm_addrsig  0x0000000000000000        0x8 obj/eth_plugin_handler.o
 .text          0x0000000000000000        0x0 obj/eth_plugin_internal.o
 .llvm_addrsig  0x0000000000000000       0x21 obj/eth_plugin_internal.o
 .text          0x0000000000000000        0x0 obj/eth_plugin_ui.o
 .text.plugin_ui_compute_fees
                0x0000000000000000       0x14 obj/eth_plugin_ui.o
 .ARM.exidx.text.plugin_ui_compute_fees
                0x0000000000000000        0x8 obj/eth_plugin_ui.o
 .llvm_addrsig  0x0000000000000000       0x44 obj/eth_plugin_ui.o
 .text          0x0000000000000000        0x0 obj/glyphs.o
 .rodata.C_badge_transaction_colors
                0x0000000000000000       0x10 obj/glyphs.o
 .rodata.C_badge_transaction_bitmap
                0x0000000000000000      0x271 obj/glyphs.o
 .rodata.C_badge_transaction
                0x0000000000000000       0x14 obj/glyphs.o
 .rodata.C_blue_badge_akroma_colors
                0x0000000000000000       0x40 obj/glyphs.o
 .rodata.C_blue_badge_akroma_bitmap
                0x0000000000000000      0x4e2 obj/glyphs.o
 .rodata.C_blue_badge_akroma
                0x0000000000000000       0x14 obj/glyphs.o
 .rodata.C_blue_badge_atheios_colors
                0x0000000000000000       0x10 obj/glyphs.o
 .rodata.C_blue_badge_atheios_bitmap
                0x0000000000000000      0x271 obj/glyphs.o
 .rodata.C_blue_badge_atheios
                0x0000000000000000       0x14 obj/glyphs.o
 .rodata.C_blue_badge_callisto_colors
                0x0000000000000000       0x40 obj/glyphs.o
 .rodata.C_blue_badge_callisto_bitmap
                0x0000000000000000      0x4e2 obj/glyphs.o
 .rodata.C_blue_badge_callisto
                0x0000000000000000       0x14 obj/glyphs.o
 .rodata.C_blue_badge_ellaism_colors
                0x0000000000000000       0x40 obj/glyphs.o
 .rodata.C_blue_badge_ellaism_bitmap
                0x0000000000000000      0x4e2 obj/glyphs.o
 .rodata.C_blue_badge_ellaism
                0x0000000000000000       0x14 obj/glyphs.o
 .rodata.C_blue_badge_eosclassic_colors
                0x0000000000000000       0x10 obj/glyphs.o
 .rodata.C_blue_badge_eosclassic_bitmap
                0x0000000000000000      0x271 obj/glyphs.o
 .rodata.C_blue_badge_eosclassic
                0x0000000000000000       0x14 obj/glyphs.o
 .rodata.C_blue_badge_ether1_colors
                0x0000000000000000       0x10 obj/glyphs.o
 .rodata.C_blue_badge_ether1_bitmap
                0x0000000000000000      0x271 obj/glyphs.o
 .rodata.C_blue_badge_ether1
                0x0000000000000000       0x14 obj/glyphs.o
 .rodata.C_blue_badge_ethereum_colors
                0x0000000000000000       0x10 obj/glyphs.o
 .rodata.C_blue_badge_ethereum_bitmap
                0x0000000000000000      0x271 obj/glyphs.o
 .rodata.C_blue_badge_ethereum
                0x0000000000000000       0x14 obj/glyphs.o
 .rodata.C_blue_badge_ethereum_classic_colors
                0x0000000000000000       0x10 obj/glyphs.o
 .rodata.C_blue_badge_ethereum_classic_bitmap
                0x0000000000000000      0x271 obj/glyphs.o
 .rodata.C_blue_badge_ethereum_classic
                0x0000000000000000       0x14 obj/glyphs.o
 .rodata.C_blue_badge_ethergem_colors
                0x0000000000000000       0x40 obj/glyphs.o
 .rodata.C_blue_badge_ethergem_bitmap
                0x0000000000000000      0x3f5 obj/glyphs.o
 .rodata.C_blue_badge_ethergem
                0x0000000000000000       0x14 obj/glyphs.o
 .rodata.C_blue_badge_ethersocial_colors
                0x0000000000000000       0x40 obj/glyphs.o
 .rodata.C_blue_badge_ethersocial_bitmap
                0x0000000000000000      0x4e2 obj/glyphs.o
 .rodata.C_blue_badge_ethersocial
                0x0000000000000000       0x14 obj/glyphs.o
 .rodata.C_blue_badge_expanse_colors
                0x0000000000000000       0x10 obj/glyphs.o
 .rodata.C_blue_badge_expanse_bitmap
                0x0000000000000000      0x271 obj/glyphs.o
 .rodata.C_blue_badge_expanse
                0x0000000000000000       0x14 obj/glyphs.o
 .rodata.C_blue_badge_gochain_colors
                0x0000000000000000       0x10 obj/glyphs.o
 .rodata.C_blue_badge_gochain_bitmap
                0x0000000000000000      0x271 obj/glyphs.o
 .rodata.C_blue_badge_gochain
                0x0000000000000000       0x14 obj/glyphs.o
 .rodata.C_blue_badge_hpb_colors
                0x0000000000000000       0x20 obj/glyphs.o
 .rodata.C_blue_badge_hpb_bitmap
                0x0000000000000000      0x342 obj/glyphs.o
 .rodata.C_blue_badge_hpb
                0x0000000000000000       0x14 obj/glyphs.o
 .rodata.C_blue_badge_mix_colors
                0x0000000000000000       0x10 obj/glyphs.o
 .rodata.C_blue_badge_mix_bitmap
                0x0000000000000000      0x271 obj/glyphs.o
 .rodata.C_blue_badge_mix
                0x0000000000000000       0x14 obj/glyphs.o
 .rodata.C_blue_badge_musicoin_colors
                0x0000000000000000       0x40 obj/glyphs.o
 .rodata.C_blue_badge_musicoin_bitmap
                0x0000000000000000      0x4e2 obj/glyphs.o
 .rodata.C_blue_badge_musicoin
                0x0000000000000000       0x14 obj/glyphs.o
 .rodata.C_blue_badge_pirl_colors
                0x0000000000000000       0x10 obj/glyphs.o
 .rodata.C_blue_badge_pirl_bitmap
                0x0000000000000000      0x271 obj/glyphs.o
 .rodata.C_blue_badge_pirl
                0x0000000000000000       0x14 obj/glyphs.o
 .rodata.C_blue_badge_poa_colors
                0x0000000000000000       0x40 obj/glyphs.o
 .rodata.C_blue_badge_poa_bitmap
                0x0000000000000000      0x4e2 obj/glyphs.o
 .rodata.C_blue_badge_poa
                0x0000000000000000       0x14 obj/glyphs.o
 .rodata.C_blue_badge_reosc_colors
                0x0000000000000000       0x10 obj/glyphs.o
 .rodata.C_blue_badge_reosc_bitmap
                0x0000000000000000      0x271 obj/glyphs.o
 .rodata.C_blue_badge_reosc
                0x0000000000000000       0x14 obj/glyphs.o
 .rodata.C_blue_badge_ropsten_colors
                0x0000000000000000       0x10 obj/glyphs.o
 .rodata.C_blue_badge_ropsten_bitmap
                0x0000000000000000      0x271 obj/glyphs.o
 .rodata.C_blue_badge_ropsten
                0x0000000000000000       0x14 obj/glyphs.o
 .rodata.C_blue_badge_rsk_colors
                0x0000000000000000       0x10 obj/glyphs.o
 .rodata.C_blue_badge_rsk_bitmap
                0x0000000000000000      0x271 obj/glyphs.o
 .rodata.C_blue_badge_rsk
                0x0000000000000000       0x14 obj/glyphs.o
 .rodata.C_blue_badge_rsk_testnet_colors
                0x0000000000000000       0x10 obj/glyphs.o
 .rodata.C_blue_badge_rsk_testnet_bitmap
                0x0000000000000000      0x271 obj/glyphs.o
 .rodata.C_blue_badge_rsk_testnet
                0x0000000000000000       0x14 obj/glyphs.o
 .rodata.C_blue_badge_thundercore_colors
                0x0000000000000000       0x20 obj/glyphs.o
 .rodata.C_blue_badge_thundercore_bitmap
                0x0000000000000000      0x223 obj/glyphs.o
 .rodata.C_blue_badge_thundercore
                0x0000000000000000       0x14 obj/glyphs.o
 .rodata.C_blue_badge_tomochain_colors
                0x0000000000000000       0x40 obj/glyphs.o
 .rodata.C_blue_badge_tomochain_bitmap
                0x0000000000000000      0x4e2 obj/glyphs.o
 .rodata.C_blue_badge_tomochain
                0x0000000000000000       0x14 obj/glyphs.o
 .rodata.C_blue_badge_ubiq_colors
                0x0000000000000000       0x10 obj/glyphs.o
 .rodata.C_blue_badge_ubiq_bitmap
                0x0000000000000000      0x271 obj/glyphs.o
 .rodata.C_blue_badge_ubiq
                0x0000000000000000       0x14 obj/glyphs.o
 .rodata.C_blue_badge_wanchain_colors
                0x0000000000000000       0x40 obj/glyphs.o
 .rodata.C_blue_badge_wanchain_bitmap
                0x0000000000000000      0x4e2 obj/glyphs.o
 .rodata.C_blue_badge_wanchain
                0x0000000000000000       0x14 obj/glyphs.o
 .rodata.C_blue_badge_webchain_colors
                0x0000000000000000       0x40 obj/glyphs.o
 .rodata.C_blue_badge_webchain_bitmap
                0x0000000000000000      0x3f5 obj/glyphs.o
 .rodata.C_blue_badge_webchain
                0x0000000000000000       0x14 obj/glyphs.o
 .rodata.C_icon_back_colors
                0x0000000000000000        0x8 obj/glyphs.o
 .rodata.C_icon_back_bitmap
                0x0000000000000000       0x19 obj/glyphs.o
 .rodata.C_icon_back
                0x0000000000000000       0x14 obj/glyphs.o
 .rodata.C_icon_dashboard_colors
                0x0000000000000000        0x8 obj/glyphs.o
 .rodata.C_icon_dashboard_bitmap
                0x0000000000000000       0x19 obj/glyphs.o
 .rodata.C_icon_dashboard
                0x0000000000000000       0x14 obj/glyphs.o
 .rodata.C_icon_down_colors
                0x0000000000000000        0x8 obj/glyphs.o
 .rodata.C_icon_down_bitmap
                0x0000000000000000        0x4 obj/glyphs.o
 .rodata.C_icon_down
                0x0000000000000000       0x14 obj/glyphs.o
 .rodata.C_icon_toggle_reset_colors
                0x0000000000000000       0x40 obj/glyphs.o
 .rodata.C_icon_toggle_reset_bitmap
                0x0000000000000000      0x120 obj/glyphs.o
 .rodata.C_icon_toggle_reset
                0x0000000000000000       0x14 obj/glyphs.o
 .rodata.C_icon_toggle_set_colors
                0x0000000000000000       0x40 obj/glyphs.o
 .rodata.C_icon_toggle_set_bitmap
                0x0000000000000000      0x120 obj/glyphs.o
 .rodata.C_icon_toggle_set
                0x0000000000000000       0x14 obj/glyphs.o
 .rodata.C_icon_up_colors
                0x0000000000000000        0x8 obj/glyphs.o
 .rodata.C_icon_up_bitmap
                0x0000000000000000        0x4 obj/glyphs.o
 .rodata.C_icon_up
                0x0000000000000000       0x14 obj/glyphs.o
 .rodata.C_nanos_badge_akroma_colors
                0x0000000000000000        0x8 obj/glyphs.o
 .rodata.C_nanos_badge_akroma_bitmap
                0x0000000000000000       0x19 obj/glyphs.o
 .rodata.C_nanos_badge_akroma
                0x0000000000000000       0x14 obj/glyphs.o
 .rodata.C_nanos_badge_artis_sigma1_colors
                0x0000000000000000        0x8 obj/glyphs.o
 .rodata.C_nanos_badge_artis_sigma1_bitmap
                0x0000000000000000       0x19 obj/glyphs.o
 .rodata.C_nanos_badge_artis_sigma1
                0x0000000000000000       0x14 obj/glyphs.o
 .rodata.C_nanos_badge_artis_tau1_colors
                0x0000000000000000        0x8 obj/glyphs.o
 .rodata.C_nanos_badge_artis_tau1_bitmap
                0x0000000000000000       0x19 obj/glyphs.o
 .rodata.C_nanos_badge_artis_tau1
                0x0000000000000000       0x14 obj/glyphs.o
 .rodata.C_nanos_badge_atheios_colors
                0x0000000000000000        0x8 obj/glyphs.o
 .rodata.C_nanos_badge_atheios_bitmap
                0x0000000000000000       0x12 obj/glyphs.o
 .rodata.C_nanos_badge_atheios
                0x0000000000000000       0x14 obj/glyphs.o
 .rodata.C_nanos_badge_callisto_colors
                0x0000000000000000        0x8 obj/glyphs.o
 .rodata.C_nanos_badge_callisto_bitmap
                0x0000000000000000       0x19 obj/glyphs.o
 .rodata.C_nanos_badge_callisto
                0x0000000000000000       0x14 obj/glyphs.o
 .rodata.C_nanos_badge_dexon_colors
                0x0000000000000000        0x8 obj/glyphs.o
 .rodata.C_nanos_badge_dexon_bitmap
                0x0000000000000000       0x19 obj/glyphs.o
 .rodata.C_nanos_badge_dexon
                0x0000000000000000       0x14 obj/glyphs.o
 .rodata.C_nanos_badge_ellaism_colors
                0x0000000000000000        0x8 obj/glyphs.o
 .rodata.C_nanos_badge_ellaism_bitmap
                0x0000000000000000       0x19 obj/glyphs.o
 .rodata.C_nanos_badge_ellaism
                0x0000000000000000       0x14 obj/glyphs.o
 .rodata.C_nanos_badge_ether1_colors
                0x0000000000000000        0x8 obj/glyphs.o
 .rodata.C_nanos_badge_ether1_bitmap
                0x0000000000000000       0x19 obj/glyphs.o
 .rodata.C_nanos_badge_ether1
                0x0000000000000000       0x14 obj/glyphs.o
 .rodata.C_nanos_badge_ethereum_colors
                0x0000000000000000        0x8 obj/glyphs.o
 .rodata.C_nanos_badge_ethereum_bitmap
                0x0000000000000000       0x19 obj/glyphs.o
 .rodata.C_nanos_badge_ethereum
                0x0000000000000000       0x14 obj/glyphs.o
 .rodata.C_nanos_badge_ethereum_classic_colors
                0x0000000000000000        0x8 obj/glyphs.o
 .rodata.C_nanos_badge_ethereum_classic_bitmap
                0x0000000000000000       0x19 obj/glyphs.o
 .rodata.C_nanos_badge_ethereum_classic
                0x0000000000000000       0x14 obj/glyphs.o
 .rodata.C_nanos_badge_ethergem_colors
                0x0000000000000000        0x8 obj/glyphs.o
 .rodata.C_nanos_badge_ethergem_bitmap
                0x0000000000000000       0x19 obj/glyphs.o
 .rodata.C_nanos_badge_ethergem
                0x0000000000000000       0x14 obj/glyphs.o
 .rodata.C_nanos_badge_ethersocial_colors
                0x0000000000000000        0x8 obj/glyphs.o
 .rodata.C_nanos_badge_ethersocial_bitmap
                0x0000000000000000       0x19 obj/glyphs.o
 .rodata.C_nanos_badge_ethersocial
                0x0000000000000000       0x14 obj/glyphs.o
 .rodata.C_nanos_badge_expanse_colors
                0x0000000000000000        0x8 obj/glyphs.o
 .rodata.C_nanos_badge_expanse_bitmap
                0x0000000000000000       0x19 obj/glyphs.o
 .rodata.C_nanos_badge_expanse
                0x0000000000000000       0x14 obj/glyphs.o
 .rodata.C_nanos_badge_gochain_colors
                0x0000000000000000        0x8 obj/glyphs.o
 .rodata.C_nanos_badge_gochain_bitmap
                0x0000000000000000       0x12 obj/glyphs.o
 .rodata.C_nanos_badge_gochain
                0x0000000000000000       0x14 obj/glyphs.o
 .rodata.C_nanos_badge_hpb_colors
                0x0000000000000000        0x8 obj/glyphs.o
 .rodata.C_nanos_badge_hpb_bitmap
                0x0000000000000000       0x19 obj/glyphs.o
 .rodata.C_nanos_badge_hpb
                0x0000000000000000       0x14 obj/glyphs.o
 .rodata.C_nanos_badge_kusd_colors
                0x0000000000000000        0x8 obj/glyphs.o
 .rodata.C_nanos_badge_kusd_bitmap
                0x0000000000000000       0x19 obj/glyphs.o
 .rodata.C_nanos_badge_kusd
                0x0000000000000000       0x14 obj/glyphs.o
 .rodata.C_nanos_badge_mix_colors
                0x0000000000000000        0x8 obj/glyphs.o
 .rodata.C_nanos_badge_mix_bitmap
                0x0000000000000000       0x19 obj/glyphs.o
 .rodata.C_nanos_badge_mix
                0x0000000000000000       0x14 obj/glyphs.o
 .rodata.C_nanos_badge_musicoin_colors
                0x0000000000000000        0x8 obj/glyphs.o
 .rodata.C_nanos_badge_musicoin_bitmap
                0x0000000000000000       0x19 obj/glyphs.o
 .rodata.C_nanos_badge_musicoin
                0x0000000000000000       0x14 obj/glyphs.o
 .rodata.C_nanos_badge_pirl_colors
                0x0000000000000000        0x8 obj/glyphs.o
 .rodata.C_nanos_badge_pirl_bitmap
                0x0000000000000000       0x19 obj/glyphs.o
 .rodata.C_nanos_badge_pirl
                0x0000000000000000       0x14 obj/glyphs.o
 .rodata.C_nanos_badge_poa_colors
                0x0000000000000000        0x8 obj/glyphs.o
 .rodata.C_nanos_badge_poa_bitmap
                0x0000000000000000       0x19 obj/glyphs.o
 .rodata.C_nanos_badge_poa
                0x0000000000000000       0x14 obj/glyphs.o
 .rodata.C_nanos_badge_reosc_colors
                0x0000000000000000        0x8 obj/glyphs.o
 .rodata.C_nanos_badge_reosc_bitmap
                0x0000000000000000       0x19 obj/glyphs.o
 .rodata.C_nanos_badge_reosc
                0x0000000000000000       0x14 obj/glyphs.o
 .rodata.C_nanos_badge_ropsten_colors
                0x0000000000000000        0x8 obj/glyphs.o
 .rodata.C_nanos_badge_ropsten_bitmap
                0x0000000000000000       0x19 obj/glyphs.o
 .rodata.C_nanos_badge_ropsten
                0x0000000000000000       0x14 obj/glyphs.o
 .rodata.C_nanos_badge_rsk_colors
                0x0000000000000000        0x8 obj/glyphs.o
 .rodata.C_nanos_badge_rsk_bitmap
                0x0000000000000000       0x19 obj/glyphs.o
 .rodata.C_nanos_badge_rsk
                0x0000000000000000       0x14 obj/glyphs.o
 .rodata.C_nanos_badge_rsk_testnet_colors
                0x0000000000000000        0x8 obj/glyphs.o
 .rodata.C_nanos_badge_rsk_testnet_bitmap
                0x0000000000000000       0x19 obj/glyphs.o
 .rodata.C_nanos_badge_rsk_testnet
                0x0000000000000000       0x14 obj/glyphs.o
 .rodata.C_nanos_badge_thundercore_colors
                0x0000000000000000        0x8 obj/glyphs.o
 .rodata.C_nanos_badge_thundercore_bitmap
                0x0000000000000000       0x20 obj/glyphs.o
 .rodata.C_nanos_badge_thundercore
                0x0000000000000000       0x14 obj/glyphs.o
 .rodata.C_nanos_badge_ubiq_colors
                0x0000000000000000        0x8 obj/glyphs.o
 .rodata.C_nanos_badge_ubiq_bitmap
                0x0000000000000000       0x19 obj/glyphs.o
 .rodata.C_nanos_badge_ubiq
                0x0000000000000000       0x14 obj/glyphs.o
 .rodata.C_nanos_badge_wanchain_colors
                0x0000000000000000        0x8 obj/glyphs.o
 .rodata.C_nanos_badge_wanchain_bitmap
                0x0000000000000000       0x19 obj/glyphs.o
 .rodata.C_nanos_badge_wanchain
                0x0000000000000000       0x14 obj/glyphs.o
 .rodata.C_nanos_badge_webchain_colors
                0x0000000000000000        0x8 obj/glyphs.o
 .rodata.C_nanos_badge_webchain_bitmap
                0x0000000000000000       0x19 obj/glyphs.o
 .rodata.C_nanos_badge_webchain
                0x0000000000000000       0x14 obj/glyphs.o
 .llvm_addrsig  0x0000000000000000      0x118 obj/glyphs.o
 .text          0x0000000000000000        0x0 obj/handle_check_address.o
 .llvm_addrsig  0x0000000000000000        0x0 obj/handle_check_address.o
 .text          0x0000000000000000        0x0 obj/handle_get_printable_amount.o
 .llvm_addrsig  0x0000000000000000        0x0 obj/handle_get_printable_amount.o
 .text          0x0000000000000000        0x0 obj/handle_swap_sign_transaction.o
 .llvm_addrsig  0x0000000000000000        0x1 obj/handle_swap_sign_transaction.o
 .text          0x0000000000000000        0x0 obj/logic_getEth2PublicKey.o
 .comment       0x0000000000000000       0x2e obj/logic_getEth2PublicKey.o
 .note.GNU-stack
                0x0000000000000000        0x0 obj/logic_getEth2PublicKey.o
 .ARM.attributes
                0x0000000000000000       0x41 obj/logic_getEth2PublicKey.o
 .llvm_addrsig  0x0000000000000000        0x0 obj/logic_getEth2PublicKey.o
 .text          0x0000000000000000        0x0 obj/logic_getPublicKey.o
 .llvm_addrsig  0x0000000000000000        0x0 obj/logic_getPublicKey.o
 .text          0x0000000000000000        0x0 obj/logic_signTx.o
 .text.to_uppercase
                0x0000000000000000       0x22 obj/logic_signTx.o
 .ARM.exidx.text.to_uppercase
                0x0000000000000000        0x8 obj/logic_signTx.o
 .llvm_addrsig  0x0000000000000000       0x16 obj/logic_signTx.o
 .text          0x0000000000000000        0x0 obj/logic_stark_getPublicKey.o
 .llvm_addrsig  0x0000000000000000        0x0 obj/logic_stark_getPublicKey.o
 .text          0x0000000000000000        0x0 obj/main.o
 .text.io_seproxyhal_touch_exit
                0x0000000000000000        0xe obj/main.o
 .ARM.exidx.text.io_seproxyhal_touch_exit
                0x0000000000000000        0x8 obj/main.o
 .text.ui_address_nanos_button
                0x0000000000000000       0x28 obj/main.o
 .ARM.exidx.text.ui_address_nanos_button
                0x0000000000000000        0x8 obj/main.o
 .text.init_coin_config
                0x0000000000000000       0x38 obj/main.o
 .ARM.exidx.text.init_coin_config
                0x0000000000000000        0x8 obj/main.o
 .llvm_addrsig  0x0000000000000000        0xa obj/main.o
 .text          0x0000000000000000        0x0 obj/os.o
 .text.os_memset4
                0x0000000000000000       0x14 obj/os.o
 .ARM.exidx.text.os_memset4
                0x0000000000000000        0x8 obj/os.o
 .text.os_xor   0x0000000000000000       0x36 obj/os.o
 .ARM.exidx.text.os_xor
                0x0000000000000000        0x8 obj/os.o
 .text.safe_desynch
                0x0000000000000000       0x36 obj/os.o
 .ARM.exidx.text.safe_desynch
                0x0000000000000000        0x8 obj/os.o
 .llvm_addrsig  0x0000000000000000        0x0 obj/os.o
 .text          0x0000000000000000        0x0 obj/os_io_seproxyhal.o
 .text.io_seproxyhal_request_mcu_status
                0x0000000000000000       0x1c obj/os_io_seproxyhal.o
 .ARM.exidx.text.io_seproxyhal_request_mcu_status
                0x0000000000000000        0x8 obj/os_io_seproxyhal.o
 .text.io_seproxyhal_handle_bluenrg_event
                0x0000000000000000        0x2 obj/os_io_seproxyhal.o
 .ARM.exidx.text.io_seproxyhal_handle_bluenrg_event
                0x0000000000000000        0x8 obj/os_io_seproxyhal.o
 .text.io_seproxyhal_display_bitmap
                0x0000000000000000       0x56 obj/os_io_seproxyhal.o
 .ARM.exidx.text.io_seproxyhal_display_bitmap
                0x0000000000000000        0x8 obj/os_io_seproxyhal.o
 .text.bagl_label_roundtrip_duration_ms
                0x0000000000000000        0xc obj/os_io_seproxyhal.o
 .ARM.exidx.text.bagl_label_roundtrip_duration_ms
                0x0000000000000000        0x8 obj/os_io_seproxyhal.o
 .text.bagl_label_roundtrip_duration_ms_buf
                0x0000000000000000       0x4a obj/os_io_seproxyhal.o
 .ARM.exidx.text.bagl_label_roundtrip_duration_ms_buf
                0x0000000000000000        0x8 obj/os_io_seproxyhal.o
 .text.io_seproxyhal_setup_ticker
                0x0000000000000000       0x24 obj/os_io_seproxyhal.o
 .ARM.exidx.text.io_seproxyhal_setup_ticker
                0x0000000000000000        0x8 obj/os_io_seproxyhal.o
 .text.io_seproxyhal_power_off
                0x0000000000000000       0x18 obj/os_io_seproxyhal.o
 .ARM.exidx.text.io_seproxyhal_power_off
                0x0000000000000000        0x8 obj/os_io_seproxyhal.o
 .text.io_seproxyhal_se_reset
                0x0000000000000000       0x18 obj/os_io_seproxyhal.o
 .ARM.exidx.text.io_seproxyhal_se_reset
                0x0000000000000000        0x8 obj/os_io_seproxyhal.o
 .text.io_seproxyhal_disable_ble
                0x0000000000000000       0x20 obj/os_io_seproxyhal.o
 .ARM.exidx.text.io_seproxyhal_disable_ble
                0x0000000000000000        0x8 obj/os_io_seproxyhal.o
 .text.io_seproxyhal_disable_io
                0x0000000000000000       0x20 obj/os_io_seproxyhal.o
 .ARM.exidx.text.io_seproxyhal_disable_io
                0x0000000000000000        0x8 obj/os_io_seproxyhal.o
 .text.io_seproxyhal_backlight
                0x0000000000000000       0x30 obj/os_io_seproxyhal.o
 .ARM.exidx.text.io_seproxyhal_backlight
                0x0000000000000000        0x8 obj/os_io_seproxyhal.o
 .text.os_ux_blocking
                0x0000000000000000       0x46 obj/os_io_seproxyhal.o
 .ARM.exidx.text.os_ux_blocking
                0x0000000000000000        0x8 obj/os_io_seproxyhal.o
 .llvm_addrsig  0x0000000000000000        0xe obj/os_io_seproxyhal.o
 .text          0x0000000000000000        0x0 obj/os_io_usb.o
 .llvm_addrsig  0x0000000000000000        0x6 obj/os_io_usb.o
 .text          0x0000000000000000        0x0 obj/os_printf.o
 .llvm_addrsig  0x0000000000000000        0x1 obj/os_printf.o
 .text          0x0000000000000000        0x0 obj/pic.o
 .llvm_addrsig  0x0000000000000000        0x2 obj/pic.o
 .text          0x0000000000000000        0x0 obj/pic_internal.o
 .llvm_addrsig  0x0000000000000000        0x0 obj/pic_internal.o
 .text          0x0000000000000000        0x0 obj/poorstream.o
 .llvm_addrsig  0x0000000000000000        0x0 obj/poorstream.o
 .text          0x0000000000000000        0x0 obj/stark_crypto.o
 .llvm_addrsig  0x0000000000000000        0x2 obj/stark_crypto.o
 .text          0x0000000000000000        0x0 obj/stark_utils.o
 .llvm_addrsig  0x0000000000000000        0x6 obj/stark_utils.o
 .text          0x0000000000000000        0x0 obj/starkware_plugin.o
 .text.is_deversify_contract
                0x0000000000000000       0x18 obj/starkware_plugin.o
 .ARM.exidx.text.is_deversify_contract
                0x0000000000000000        0x8 obj/starkware_plugin.o
 .text.starkware_print_vault_id
                0x0000000000000000       0x18 obj/starkware_plugin.o
 .ARM.exidx.text.starkware_print_vault_id
                0x0000000000000000        0x8 obj/starkware_plugin.o
 .text.starkware_print_ticker
                0x0000000000000000       0x38 obj/starkware_plugin.o
 .ARM.exidx.text.starkware_print_ticker
                0x0000000000000000        0x8 obj/starkware_plugin.o
 .llvm_addrsig  0x0000000000000000        0xc obj/starkware_plugin.o
 .text          0x0000000000000000        0x0 obj/syscalls.o
 .text.cx_rng_u8
                0x0000000000000000       0x18 obj/syscalls.o
 .ARM.exidx.text.cx_rng_u8
                0x0000000000000000        0x8 obj/syscalls.o
 .text.cx_ripemd160_init
                0x0000000000000000       0x18 obj/syscalls.o
 .ARM.exidx.text.cx_ripemd160_init
                0x0000000000000000        0x8 obj/syscalls.o
 .text.cx_sha224_init
                0x0000000000000000       0x18 obj/syscalls.o
 .ARM.exidx.text.cx_sha224_init
                0x0000000000000000        0x8 obj/syscalls.o
 .text.cx_sha384_init
                0x0000000000000000       0x18 obj/syscalls.o
 .ARM.exidx.text.cx_sha384_init
                0x0000000000000000        0x8 obj/syscalls.o
 .text.cx_sha512_init
                0x0000000000000000       0x18 obj/syscalls.o
 .ARM.exidx.text.cx_sha512_init
                0x0000000000000000        0x8 obj/syscalls.o
 .text.cx_hash_sha512
                0x0000000000000000       0x20 obj/syscalls.o
 .ARM.exidx.text.cx_hash_sha512
                0x0000000000000000        0x8 obj/syscalls.o
 .text.cx_sha3_init
                0x0000000000000000       0x1c obj/syscalls.o
 .ARM.exidx.text.cx_sha3_init
                0x0000000000000000        0x8 obj/syscalls.o
 .text.cx_shake128_init
                0x0000000000000000       0x1c obj/syscalls.o
 .ARM.exidx.text.cx_shake128_init
                0x0000000000000000        0x8 obj/syscalls.o
 .text.cx_shake256_init
                0x0000000000000000       0x1c obj/syscalls.o
 .ARM.exidx.text.cx_shake256_init
                0x0000000000000000        0x8 obj/syscalls.o
 .text.cx_sha3_xof_init
                0x0000000000000000       0x1c obj/syscalls.o
 .ARM.exidx.text.cx_sha3_xof_init
                0x0000000000000000        0x8 obj/syscalls.o
 .text.cx_blake2b_init
                0x0000000000000000       0x1c obj/syscalls.o
 .ARM.exidx.text.cx_blake2b_init
                0x0000000000000000        0x8 obj/syscalls.o
 .text.cx_blake2b_init2
                0x0000000000000000       0x28 obj/syscalls.o
 .ARM.exidx.text.cx_blake2b_init2
                0x0000000000000000        0x8 obj/syscalls.o
 .text.cx_groestl_init
                0x0000000000000000       0x1c obj/syscalls.o
 .ARM.exidx.text.cx_groestl_init
                0x0000000000000000        0x8 obj/syscalls.o
 .text.cx_hmac_ripemd160_init
                0x0000000000000000       0x1c obj/syscalls.o
 .ARM.exidx.text.cx_hmac_ripemd160_init
                0x0000000000000000        0x8 obj/syscalls.o
 .text.cx_hmac_sha256_init
                0x0000000000000000       0x1c obj/syscalls.o
 .ARM.exidx.text.cx_hmac_sha256_init
                0x0000000000000000        0x8 obj/syscalls.o
 .text.cx_hmac_sha512_init
                0x0000000000000000       0x1c obj/syscalls.o
 .ARM.exidx.text.cx_hmac_sha512_init
                0x0000000000000000        0x8 obj/syscalls.o
 .text.cx_hmac  0x0000000000000000       0x28 obj/syscalls.o
 .ARM.exidx.text.cx_hmac
                0x0000000000000000        0x8 obj/syscalls.o
 .text.cx_hmac_sha512
                0x0000000000000000       0x28 obj/syscalls.o
 .ARM.exidx.text.cx_hmac_sha512
                0x0000000000000000        0x8 obj/syscalls.o
 .text.cx_hmac_sha256
                0x0000000000000000       0x28 obj/syscalls.o
 .ARM.exidx.text.cx_hmac_sha256
                0x0000000000000000        0x8 obj/syscalls.o
 .text.cx_pbkdf2
                0x0000000000000000       0x2c obj/syscalls.o
 .ARM.exidx.text.cx_pbkdf2
                0x0000000000000000        0x8 obj/syscalls.o
 .text.cx_des_init_key
                0x0000000000000000       0x1c obj/syscalls.o
 .ARM.exidx.text.cx_des_init_key
                0x0000000000000000        0x8 obj/syscalls.o
 .text.cx_des_iv
                0x0000000000000000       0x30 obj/syscalls.o
 .ARM.exidx.text.cx_des_iv
                0x0000000000000000        0x8 obj/syscalls.o
 .text.cx_des   0x0000000000000000       0x28 obj/syscalls.o
 .ARM.exidx.text.cx_des
                0x0000000000000000        0x8 obj/syscalls.o
 .text.cx_aes_init_key
                0x0000000000000000       0x1c obj/syscalls.o
 .ARM.exidx.text.cx_aes_init_key
                0x0000000000000000        0x8 obj/syscalls.o
 .text.cx_aes_iv
                0x0000000000000000       0x30 obj/syscalls.o
 .ARM.exidx.text.cx_aes_iv
                0x0000000000000000        0x8 obj/syscalls.o
 .text.cx_aes   0x0000000000000000       0x28 obj/syscalls.o
 .ARM.exidx.text.cx_aes
                0x0000000000000000        0x8 obj/syscalls.o
 .text.cx_rsa_init_public_key
                0x0000000000000000       0x24 obj/syscalls.o
 .ARM.exidx.text.cx_rsa_init_public_key
                0x0000000000000000        0x8 obj/syscalls.o
 .text.cx_rsa_init_private_key
                0x0000000000000000       0x24 obj/syscalls.o
 .ARM.exidx.text.cx_rsa_init_private_key
                0x0000000000000000        0x8 obj/syscalls.o
 .text.cx_rsa_generate_pair
                0x0000000000000000       0x28 obj/syscalls.o
 .ARM.exidx.text.cx_rsa_generate_pair
                0x0000000000000000        0x8 obj/syscalls.o
 .text.cx_rsa_sign
                0x0000000000000000       0x2c obj/syscalls.o
 .ARM.exidx.text.cx_rsa_sign
                0x0000000000000000        0x8 obj/syscalls.o
 .text.cx_rsa_verify
                0x0000000000000000       0x2c obj/syscalls.o
 .ARM.exidx.text.cx_rsa_verify
                0x0000000000000000        0x8 obj/syscalls.o
 .text.cx_rsa_encrypt
                0x0000000000000000       0x2c obj/syscalls.o
 .ARM.exidx.text.cx_rsa_encrypt
                0x0000000000000000        0x8 obj/syscalls.o
 .text.cx_rsa_decrypt
                0x0000000000000000       0x2c obj/syscalls.o
 .ARM.exidx.text.cx_rsa_decrypt
                0x0000000000000000        0x8 obj/syscalls.o
 .text.cx_ecfp_is_valid_point
                0x0000000000000000       0x1c obj/syscalls.o
 .ARM.exidx.text.cx_ecfp_is_valid_point
                0x0000000000000000        0x8 obj/syscalls.o
 .text.cx_ecfp_is_cryptographic_point
                0x0000000000000000       0x1c obj/syscalls.o
 .ARM.exidx.text.cx_ecfp_is_cryptographic_point
                0x0000000000000000        0x8 obj/syscalls.o
 .text.cx_ecfp_generate_pair2
                0x0000000000000000       0x24 obj/syscalls.o
 .ARM.exidx.text.cx_ecfp_generate_pair2
                0x0000000000000000        0x8 obj/syscalls.o
 .text.cx_edward_compress_point
                0x0000000000000000       0x1c obj/syscalls.o
 .ARM.exidx.text.cx_edward_compress_point
                0x0000000000000000        0x8 obj/syscalls.o
 .text.cx_edward_decompress_point
                0x0000000000000000       0x1c obj/syscalls.o
 .ARM.exidx.text.cx_edward_decompress_point
                0x0000000000000000        0x8 obj/syscalls.o
 .text.cx_eddsa_get_public_key
                0x0000000000000000       0x28 obj/syscalls.o
 .ARM.exidx.text.cx_eddsa_get_public_key
                0x0000000000000000        0x8 obj/syscalls.o
 .text.cx_eddsa_sign
                0x0000000000000000       0x38 obj/syscalls.o
 .ARM.exidx.text.cx_eddsa_sign
                0x0000000000000000        0x8 obj/syscalls.o
 .text.cx_eddsa_verify
                0x0000000000000000       0x34 obj/syscalls.o
 .ARM.exidx.text.cx_eddsa_verify
                0x0000000000000000        0x8 obj/syscalls.o
 .text.cx_ecschnorr_sign
                0x0000000000000000       0x30 obj/syscalls.o
 .ARM.exidx.text.cx_ecschnorr_sign
                0x0000000000000000        0x8 obj/syscalls.o
 .text.cx_ecschnorr_verify
                0x0000000000000000       0x2c obj/syscalls.o
 .ARM.exidx.text.cx_ecschnorr_verify
                0x0000000000000000        0x8 obj/syscalls.o
 .text.cx_ecdh  0x0000000000000000       0x28 obj/syscalls.o
 .ARM.exidx.text.cx_ecdh
                0x0000000000000000        0x8 obj/syscalls.o
 .text.cx_crc16
                0x0000000000000000       0x1c obj/syscalls.o
 .ARM.exidx.text.cx_crc16
                0x0000000000000000        0x8 obj/syscalls.o
 .text.cx_math_is_zero
                0x0000000000000000       0x1c obj/syscalls.o
 .ARM.exidx.text.cx_math_is_zero
                0x0000000000000000        0x8 obj/syscalls.o
 .text.cx_math_add
                0x0000000000000000       0x20 obj/syscalls.o
 .ARM.exidx.text.cx_math_add
                0x0000000000000000        0x8 obj/syscalls.o
 .text.cx_math_sub
                0x0000000000000000       0x20 obj/syscalls.o
 .ARM.exidx.text.cx_math_sub
                0x0000000000000000        0x8 obj/syscalls.o
 .text.cx_math_addm
                0x0000000000000000       0x20 obj/syscalls.o
 .ARM.exidx.text.cx_math_addm
                0x0000000000000000        0x8 obj/syscalls.o
 .text.cx_math_subm
                0x0000000000000000       0x20 obj/syscalls.o
 .ARM.exidx.text.cx_math_subm
                0x0000000000000000        0x8 obj/syscalls.o
 .text.cx_math_multm
                0x0000000000000000       0x20 obj/syscalls.o
 .ARM.exidx.text.cx_math_multm
                0x0000000000000000        0x8 obj/syscalls.o
 .text.cx_math_powm
                0x0000000000000000       0x24 obj/syscalls.o
 .ARM.exidx.text.cx_math_powm
                0x0000000000000000        0x8 obj/syscalls.o
 .text.cx_math_invprimem
                0x0000000000000000       0x1c obj/syscalls.o
 .ARM.exidx.text.cx_math_invprimem
                0x0000000000000000        0x8 obj/syscalls.o
 .text.cx_math_invintm
                0x0000000000000000       0x1c obj/syscalls.o
 .ARM.exidx.text.cx_math_invintm
                0x0000000000000000        0x8 obj/syscalls.o
 .text.cx_math_is_prime
                0x0000000000000000       0x1c obj/syscalls.o
 .ARM.exidx.text.cx_math_is_prime
                0x0000000000000000        0x8 obj/syscalls.o
 .text.cx_math_next_prime
                0x0000000000000000       0x18 obj/syscalls.o
 .ARM.exidx.text.cx_math_next_prime
                0x0000000000000000        0x8 obj/syscalls.o
 .text.os_perso_erase_all
                0x0000000000000000       0x14 obj/syscalls.o
 .ARM.exidx.text.os_perso_erase_all
                0x0000000000000000        0x8 obj/syscalls.o
 .text.os_perso_set_pin
                0x0000000000000000       0x1c obj/syscalls.o
 .ARM.exidx.text.os_perso_set_pin
                0x0000000000000000        0x8 obj/syscalls.o
 .text.os_perso_set_current_identity_pin
                0x0000000000000000       0x18 obj/syscalls.o
 .ARM.exidx.text.os_perso_set_current_identity_pin
                0x0000000000000000        0x8 obj/syscalls.o
 .text.os_perso_set_seed
                0x0000000000000000       0x1c obj/syscalls.o
 .ARM.exidx.text.os_perso_set_seed
                0x0000000000000000        0x8 obj/syscalls.o
 .text.os_perso_derive_and_set_seed
                0x0000000000000000       0x28 obj/syscalls.o
 .ARM.exidx.text.os_perso_derive_and_set_seed
                0x0000000000000000        0x8 obj/syscalls.o
 .text.os_perso_set_words
                0x0000000000000000       0x18 obj/syscalls.o
 .ARM.exidx.text.os_perso_set_words
                0x0000000000000000        0x8 obj/syscalls.o
 .text.os_perso_finalize
                0x0000000000000000       0x14 obj/syscalls.o
 .ARM.exidx.text.os_perso_finalize
                0x0000000000000000        0x8 obj/syscalls.o
 .text.os_perso_derive_node_with_seed_key
                0x0000000000000000       0x2c obj/syscalls.o
 .ARM.exidx.text.os_perso_derive_node_with_seed_key
                0x0000000000000000        0x8 obj/syscalls.o
 .text.os_endorsement_get_code_hash
                0x0000000000000000       0x18 obj/syscalls.o
 .ARM.exidx.text.os_endorsement_get_code_hash
                0x0000000000000000        0x8 obj/syscalls.o
 .text.os_endorsement_get_public_key
                0x0000000000000000       0x1c obj/syscalls.o
 .ARM.exidx.text.os_endorsement_get_public_key
                0x0000000000000000        0x8 obj/syscalls.o
 .text.os_endorsement_get_public_key_certificate
                0x0000000000000000       0x1c obj/syscalls.o
 .ARM.exidx.text.os_endorsement_get_public_key_certificate
                0x0000000000000000        0x8 obj/syscalls.o
 .text.os_endorsement_key1_get_app_secret
                0x0000000000000000       0x18 obj/syscalls.o
 .ARM.exidx.text.os_endorsement_key1_get_app_secret
                0x0000000000000000        0x8 obj/syscalls.o
 .text.os_endorsement_key1_sign_data
                0x0000000000000000       0x1c obj/syscalls.o
 .ARM.exidx.text.os_endorsement_key1_sign_data
                0x0000000000000000        0x8 obj/syscalls.o
 .text.os_endorsement_key2_derive_sign_data
                0x0000000000000000       0x1c obj/syscalls.o
 .ARM.exidx.text.os_endorsement_key2_derive_sign_data
                0x0000000000000000        0x8 obj/syscalls.o
 .text.os_global_pin_check
                0x0000000000000000       0x1c obj/syscalls.o
 .ARM.exidx.text.os_global_pin_check
                0x0000000000000000        0x8 obj/syscalls.o
 .text.os_global_pin_invalidate
                0x0000000000000000       0x14 obj/syscalls.o
 .ARM.exidx.text.os_global_pin_invalidate
                0x0000000000000000        0x8 obj/syscalls.o
 .text.os_global_pin_retries
                0x0000000000000000       0x18 obj/syscalls.o
 .ARM.exidx.text.os_global_pin_retries
                0x0000000000000000        0x8 obj/syscalls.o
 .text.os_registry_count
                0x0000000000000000       0x18 obj/syscalls.o
 .ARM.exidx.text.os_registry_count
                0x0000000000000000        0x8 obj/syscalls.o
 .text.os_registry_get
                0x0000000000000000       0x18 obj/syscalls.o
 .ARM.exidx.text.os_registry_get
                0x0000000000000000        0x8 obj/syscalls.o
 .text.os_ux_result
                0x0000000000000000       0x18 obj/syscalls.o
 .ARM.exidx.text.os_ux_result
                0x0000000000000000        0x8 obj/syscalls.o
 .text.os_ux_read_parameters
                0x0000000000000000       0x18 obj/syscalls.o
 .ARM.exidx.text.os_ux_read_parameters
                0x0000000000000000        0x8 obj/syscalls.o
 .text.os_lib_throw
                0x0000000000000000       0x18 obj/syscalls.o
 .ARM.exidx.text.os_lib_throw
                0x0000000000000000        0x8 obj/syscalls.o
 .text.os_version
                0x0000000000000000       0x1c obj/syscalls.o
 .ARM.exidx.text.os_version
                0x0000000000000000        0x8 obj/syscalls.o
 .text.os_serial
                0x0000000000000000       0x1c obj/syscalls.o
 .ARM.exidx.text.os_serial
                0x0000000000000000        0x8 obj/syscalls.o
 .text.os_seph_features
                0x0000000000000000       0x18 obj/syscalls.o
 .ARM.exidx.text.os_seph_features
                0x0000000000000000        0x8 obj/syscalls.o
 .text.os_seph_version
                0x0000000000000000       0x1c obj/syscalls.o
 .ARM.exidx.text.os_seph_version
                0x0000000000000000        0x8 obj/syscalls.o
 .text.os_bootloader_version
                0x0000000000000000       0x1c obj/syscalls.o
 .ARM.exidx.text.os_bootloader_version
                0x0000000000000000        0x8 obj/syscalls.o
 .text.os_setting_get
                0x0000000000000000       0x1c obj/syscalls.o
 .ARM.exidx.text.os_setting_get
                0x0000000000000000        0x8 obj/syscalls.o
 .text.os_setting_set
                0x0000000000000000       0x1c obj/syscalls.o
 .ARM.exidx.text.os_setting_set
                0x0000000000000000        0x8 obj/syscalls.o
 .text.os_get_memory_info
                0x0000000000000000       0x18 obj/syscalls.o
 .ARM.exidx.text.os_get_memory_info
                0x0000000000000000        0x8 obj/syscalls.o
 .text.os_registry_get_tag
                0x0000000000000000       0x28 obj/syscalls.o
 .ARM.exidx.text.os_registry_get_tag
                0x0000000000000000        0x8 obj/syscalls.o
 .text.os_customca_verify
                0x0000000000000000       0x1c obj/syscalls.o
 .ARM.exidx.text.os_customca_verify
                0x0000000000000000        0x8 obj/syscalls.o
 .text.os_sched_exec
                0x0000000000000000       0x18 obj/syscalls.o
 .ARM.exidx.text.os_sched_exec
                0x0000000000000000        0x8 obj/syscalls.o
 .text.os_sched_is_running
                0x0000000000000000       0x1c obj/syscalls.o
 .ARM.exidx.text.os_sched_is_running
                0x0000000000000000        0x8 obj/syscalls.o
 .text.os_sched_create
                0x0000000000000000       0x38 obj/syscalls.o
 .ARM.exidx.text.os_sched_create
                0x0000000000000000        0x8 obj/syscalls.o
 .text.os_sched_kill
                0x0000000000000000       0x18 obj/syscalls.o
 .ARM.exidx.text.os_sched_kill
                0x0000000000000000        0x8 obj/syscalls.o
 .text.nvm_write_page
                0x0000000000000000       0x18 obj/syscalls.o
 .ARM.exidx.text.nvm_write_page
                0x0000000000000000        0x8 obj/syscalls.o
 .text.cx_rng_u32
                0x0000000000000000       0x18 obj/syscalls.o
 .ARM.exidx.text.cx_rng_u32
                0x0000000000000000        0x8 obj/syscalls.o
 .text.os_sched_yield
                0x0000000000000000       0x18 obj/syscalls.o
 .ARM.exidx.text.os_sched_yield
                0x0000000000000000        0x8 obj/syscalls.o
 .text.os_sched_switch
                0x0000000000000000       0x18 obj/syscalls.o
 .ARM.exidx.text.os_sched_switch
                0x0000000000000000        0x8 obj/syscalls.o
 .text.os_sched_current_task
                0x0000000000000000       0x18 obj/syscalls.o
 .ARM.exidx.text.os_sched_current_task
                0x0000000000000000        0x8 obj/syscalls.o
 .text.os_mpu_protect_ram
                0x0000000000000000       0x18 obj/syscalls.o
 .ARM.exidx.text.os_mpu_protect_ram
                0x0000000000000000        0x8 obj/syscalls.o
 .text.os_mpu_protect_flash
                0x0000000000000000       0x18 obj/syscalls.o
 .ARM.exidx.text.os_mpu_protect_flash
                0x0000000000000000        0x8 obj/syscalls.o
 .llvm_addrsig  0x0000000000000000        0x2 obj/syscalls.o
 .text          0x0000000000000000        0x0 obj/tcr.o
 .comment       0x0000000000000000       0x2e obj/tcr.o
 .note.GNU-stack
                0x0000000000000000        0x0 obj/tcr.o
 .ARM.attributes
                0x0000000000000000       0x41 obj/tcr.o
 .llvm_addrsig  0x0000000000000000        0x0 obj/tcr.o
 .text          0x0000000000000000        0x0 obj/tokens.o
 .comment       0x0000000000000000       0x2e obj/tokens.o
 .note.GNU-stack
                0x0000000000000000        0x0 obj/tokens.o
 .ARM.attributes
                0x0000000000000000       0x41 obj/tokens.o
 .llvm_addrsig  0x0000000000000000        0x0 obj/tokens.o
 .text          0x0000000000000000        0x0 obj/u2f_impl.o
 .text.u2f_apdu_enroll
                0x0000000000000000       0x14 obj/u2f_impl.o
 .ARM.exidx.text.u2f_apdu_enroll
                0x0000000000000000        0x8 obj/u2f_impl.o
 .text.u2f_apdu_get_version
                0x0000000000000000       0x14 obj/u2f_impl.o
 .ARM.exidx.text.u2f_apdu_get_version
                0x0000000000000000        0x8 obj/u2f_impl.o
 .text.u2f_apdu_get_info
                0x0000000000000000       0x14 obj/u2f_impl.o
 .ARM.exidx.text.u2f_apdu_get_info
                0x0000000000000000        0x8 obj/u2f_impl.o
 .text.u2f_handle_cmd_ping
                0x0000000000000000        0xe obj/u2f_impl.o
 .ARM.exidx.text.u2f_handle_cmd_ping
                0x0000000000000000        0x8 obj/u2f_impl.o
 .llvm_addrsig  0x0000000000000000        0xe obj/u2f_impl.o
 .text          0x0000000000000000        0x0 obj/u2f_io.o
 .llvm_addrsig  0x0000000000000000        0x1 obj/u2f_io.o
 .text          0x0000000000000000        0x0 obj/u2f_transport.o
 .text.u2f_transport_reset
                0x0000000000000000       0x12 obj/u2f_transport.o
 .ARM.exidx.text.u2f_transport_reset
                0x0000000000000000        0x8 obj/u2f_transport.o
 .text.u2f_is_channel_forbidden
                0x0000000000000000       0x18 obj/u2f_transport.o
 .ARM.exidx.text.u2f_is_channel_forbidden
                0x0000000000000000        0x8 obj/u2f_transport.o
 .llvm_addrsig  0x0000000000000000        0x4 obj/u2f_transport.o
 .text          0x0000000000000000        0x0 obj/ui_common_getEth2PublicKey.o
 .comment       0x0000000000000000       0x2e obj/ui_common_getEth2PublicKey.o
 .note.GNU-stack
                0x0000000000000000        0x0 obj/ui_common_getEth2PublicKey.o
 .ARM.attributes
                0x0000000000000000       0x41 obj/ui_common_getEth2PublicKey.o
 .llvm_addrsig  0x0000000000000000        0x0 obj/ui_common_getEth2PublicKey.o
 .text          0x0000000000000000        0x0 obj/ui_common_getPublicKey.o
 .llvm_addrsig  0x0000000000000000        0x0 obj/ui_common_getPublicKey.o
 .text          0x0000000000000000        0x0 obj/ui_common_signMessage.o
 .llvm_addrsig  0x0000000000000000        0x1 obj/ui_common_signMessage.o
 .text          0x0000000000000000        0x0 obj/ui_common_signMessage712.o
 .llvm_addrsig  0x0000000000000000        0x4 obj/ui_common_signMessage712.o
 .text          0x0000000000000000        0x0 obj/ui_common_signTx.o
 .llvm_addrsig  0x0000000000000000        0x6 obj/ui_common_signTx.o
 .text          0x0000000000000000        0x0 obj/ui_common_stark_getPublicKey.o
 .llvm_addrsig  0x0000000000000000        0x0 obj/ui_common_stark_getPublicKey.o
 .text          0x0000000000000000        0x0 obj/ui_common_stark_sign.o
 .llvm_addrsig  0x0000000000000000        0x2 obj/ui_common_stark_sign.o
 .text          0x0000000000000000        0x0 obj/ui_common_stark_unsafe_sign.o
 .llvm_addrsig  0x0000000000000000        0x2 obj/ui_common_stark_unsafe_sign.o
 .text          0x0000000000000000        0x0 obj/ui_flow.o
 .llvm_addrsig  0x0000000000000000       0x49 obj/ui_flow.o
 .text          0x0000000000000000        0x0 obj/ui_flow_erc20_approval.o
 .text.ux_approval_allowance_6_step_validateinit
                0x0000000000000000        0xa obj/ui_flow_erc20_approval.o
 .ARM.exidx.text.ux_approval_allowance_6_step_validateinit
                0x0000000000000000        0x8 obj/ui_flow_erc20_approval.o
 .text.ux_approval_allowance_7_step_validateinit
                0x0000000000000000        0xa obj/ui_flow_erc20_approval.o
 .ARM.exidx.text.ux_approval_allowance_7_step_validateinit
                0x0000000000000000        0x8 obj/ui_flow_erc20_approval.o
 .rodata.str1.1
                0x0000000000000000       0x54 obj/ui_flow_erc20_approval.o
 .rodata.ux_approval_allowance_1_step_val
                0x0000000000000000        0xc obj/ui_flow_erc20_approval.o
 .rodata.ux_approval_allowance_1_step
                0x0000000000000000       0x10 obj/ui_flow_erc20_approval.o
 .rodata.ux_approval_allowance_2_step_val
                0x0000000000000000        0x8 obj/ui_flow_erc20_approval.o
 .rodata.ux_approval_allowance_2_step
                0x0000000000000000       0x10 obj/ui_flow_erc20_approval.o
 .rodata.ux_approval_allowance_3_step_val
                0x0000000000000000        0x8 obj/ui_flow_erc20_approval.o
 .rodata.ux_approval_allowance_3_step
                0x0000000000000000       0x10 obj/ui_flow_erc20_approval.o
 .rodata.ux_approval_allowance_4_step_val
                0x0000000000000000        0x8 obj/ui_flow_erc20_approval.o
 .rodata.ux_approval_allowance_4_step
                0x0000000000000000       0x10 obj/ui_flow_erc20_approval.o
 .rodata.ux_approval_allowance_5_step_val
                0x0000000000000000        0x8 obj/ui_flow_erc20_approval.o
 .rodata.ux_approval_allowance_5_step
                0x0000000000000000       0x10 obj/ui_flow_erc20_approval.o
 .rodata.ux_approval_allowance_6_step_validate_step
                0x0000000000000000       0x10 obj/ui_flow_erc20_approval.o
 .rodata.ux_approval_allowance_6_step_validate
                0x0000000000000000        0x8 obj/ui_flow_erc20_approval.o
 .rodata.ux_approval_allowance_6_step_val
                0x0000000000000000        0xc obj/ui_flow_erc20_approval.o
 .rodata.ux_approval_allowance_6_step
                0x0000000000000000       0x10 obj/ui_flow_erc20_approval.o
 .rodata.ux_approval_allowance_7_step_validate_step
                0x0000000000000000       0x10 obj/ui_flow_erc20_approval.o
 .rodata.ux_approval_allowance_7_step_validate
                0x0000000000000000        0x8 obj/ui_flow_erc20_approval.o
 .rodata.ux_approval_allowance_7_step_val
                0x0000000000000000        0x8 obj/ui_flow_erc20_approval.o
 .rodata.ux_approval_allowance_7_step
                0x0000000000000000       0x10 obj/ui_flow_erc20_approval.o
 .rodata.ux_approval_allowance_flow
                0x0000000000000000       0x20 obj/ui_flow_erc20_approval.o
 .debug_str     0x0000000000000000      0x505 obj/ui_flow_erc20_approval.o
 .debug_abbrev  0x0000000000000000       0xb9 obj/ui_flow_erc20_approval.o
 .debug_info    0x0000000000000000      0x3e1 obj/ui_flow_erc20_approval.o
 .debug_ranges  0x0000000000000000       0x18 obj/ui_flow_erc20_approval.o
 .debug_macinfo
                0x0000000000000000        0x1 obj/ui_flow_erc20_approval.o
 .comment       0x0000000000000000       0x2e obj/ui_flow_erc20_approval.o
 .note.GNU-stack
                0x0000000000000000        0x0 obj/ui_flow_erc20_approval.o
 .ARM.attributes
                0x0000000000000000       0x43 obj/ui_flow_erc20_approval.o
 .debug_frame   0x0000000000000000       0x40 obj/ui_flow_erc20_approval.o
 .debug_line    0x0000000000000000      0x12b obj/ui_flow_erc20_approval.o
 .llvm_addrsig  0x0000000000000000       0x1c obj/ui_flow_erc20_approval.o
 .text          0x0000000000000000        0x0 obj/ui_flow_getEth2PublicKey.o
 .comment       0x0000000000000000       0x2e obj/ui_flow_getEth2PublicKey.o
 .note.GNU-stack
                0x0000000000000000        0x0 obj/ui_flow_getEth2PublicKey.o
 .ARM.attributes
                0x0000000000000000       0x41 obj/ui_flow_getEth2PublicKey.o
 .llvm_addrsig  0x0000000000000000        0x0 obj/ui_flow_getEth2PublicKey.o
 .text          0x0000000000000000        0x0 obj/ui_flow_getPublicKey.o
 .llvm_addrsig  0x0000000000000000       0x15 obj/ui_flow_getPublicKey.o
 .text          0x0000000000000000        0x0 obj/ui_flow_signMessage.o
 .llvm_addrsig  0x0000000000000000       0x15 obj/ui_flow_signMessage.o
 .text          0x0000000000000000        0x0 obj/ui_flow_signMessage712.o
 .text.prepare_domain_hash_v0
                0x0000000000000000       0x2c obj/ui_flow_signMessage712.o
 .ARM.exidx.text.prepare_domain_hash_v0
                0x0000000000000000        0x8 obj/ui_flow_signMessage712.o
 .text.prepare_message_hash_v0
                0x0000000000000000       0x2c obj/ui_flow_signMessage712.o
 .ARM.exidx.text.prepare_message_hash_v0
                0x0000000000000000        0x8 obj/ui_flow_signMessage712.o
 .llvm_addrsig  0x0000000000000000       0x19 obj/ui_flow_signMessage712.o
 .text          0x0000000000000000        0x0 obj/ui_flow_signTx.o
 .llvm_addrsig  0x0000000000000000       0x70 obj/ui_flow_signTx.o
 .text          0x0000000000000000        0x0 obj/ui_flow_stark_getPublicKey.o
 .llvm_addrsig  0x0000000000000000       0x15 obj/ui_flow_stark_getPublicKey.o
 .text          0x0000000000000000        0x0 obj/ui_flow_stark_sign.o
 .text.stark_sign_display_master_account
                0x0000000000000000       0x2c obj/ui_flow_stark_sign.o
 .ARM.exidx.text.stark_sign_display_master_account
                0x0000000000000000        0x8 obj/ui_flow_stark_sign.o
 .text.stark_sign_display_condition_address
                0x0000000000000000       0x34 obj/ui_flow_stark_sign.o
 .ARM.exidx.text.stark_sign_display_condition_address
                0x0000000000000000        0x8 obj/ui_flow_stark_sign.o
 .text.stark_sign_display_condition_fact
                0x0000000000000000       0x2c obj/ui_flow_stark_sign.o
 .ARM.exidx.text.stark_sign_display_condition_fact
                0x0000000000000000        0x8 obj/ui_flow_stark_sign.o
 .llvm_addrsig  0x0000000000000000       0x88 obj/ui_flow_stark_sign.o
 .text          0x0000000000000000        0x0 obj/ui_flow_stark_unsafe_sign.o
 .text.stark_unsafe_sign_display_account
                0x0000000000000000       0x28 obj/ui_flow_stark_unsafe_sign.o
 .ARM.exidx.text.stark_unsafe_sign_display_account
                0x0000000000000000        0x8 obj/ui_flow_stark_unsafe_sign.o
 .text.stark_unsafe_sign_display_hash
                0x0000000000000000       0x2c obj/ui_flow_stark_unsafe_sign.o
 .ARM.exidx.text.stark_unsafe_sign_display_hash
                0x0000000000000000        0x8 obj/ui_flow_stark_unsafe_sign.o
 .llvm_addrsig  0x0000000000000000       0x1a obj/ui_flow_stark_unsafe_sign.o
 .text          0x0000000000000000        0x0 obj/uint256.o
 .text.readu128BE
                0x0000000000000000       0x1c obj/uint256.o
 .ARM.exidx.text.readu128BE
                0x0000000000000000        0x8 obj/uint256.o
 .text.zero128  0x0000000000000000       0x18 obj/uint256.o
 .ARM.exidx.text.zero128
                0x0000000000000000        0x8 obj/uint256.o
 .text.zero256  0x0000000000000000       0x2e obj/uint256.o
 .ARM.exidx.text.zero256
                0x0000000000000000        0x8 obj/uint256.o
 .text.copy128  0x0000000000000000        0xe obj/uint256.o
 .ARM.exidx.text.copy128
                0x0000000000000000        0x8 obj/uint256.o
 .text.copy256  0x0000000000000000       0x22 obj/uint256.o
 .ARM.exidx.text.copy256
                0x0000000000000000        0x8 obj/uint256.o
 .text.clear128
                0x0000000000000000        0xc obj/uint256.o
 .ARM.exidx.text.clear128
                0x0000000000000000        0x8 obj/uint256.o
 .text.clear256
                0x0000000000000000        0xa obj/uint256.o
 .ARM.exidx.text.clear256
                0x0000000000000000        0x8 obj/uint256.o
 .text.add128   0x0000000000000000       0x5e obj/uint256.o
 .ARM.exidx.text.add128
                0x0000000000000000        0x8 obj/uint256.o
 .text.bits128  0x0000000000000000       0x48 obj/uint256.o
 .ARM.exidx.text.bits128
                0x0000000000000000        0x8 obj/uint256.o
 .text.equal128
                0x0000000000000000       0x2c obj/uint256.o
 .ARM.exidx.text.equal128
                0x0000000000000000        0x8 obj/uint256.o
 .text.equal256
                0x0000000000000000       0x50 obj/uint256.o
 .ARM.exidx.text.equal256
                0x0000000000000000        0x8 obj/uint256.o
 .text.gt128    0x0000000000000000       0x34 obj/uint256.o
 .ARM.exidx.text.gt128
                0x0000000000000000        0x8 obj/uint256.o
 .text.gte128   0x0000000000000000       0x42 obj/uint256.o
 .ARM.exidx.text.gte128
                0x0000000000000000        0x8 obj/uint256.o
 .text.add256   0x0000000000000000      0x184 obj/uint256.o
 .ARM.exidx.text.add256
                0x0000000000000000        0x8 obj/uint256.o
 .text.minus128
                0x0000000000000000       0x5a obj/uint256.o
 .ARM.exidx.text.minus128
                0x0000000000000000        0x8 obj/uint256.o
 .text.or128    0x0000000000000000       0x24 obj/uint256.o
 .ARM.exidx.text.or128
                0x0000000000000000        0x8 obj/uint256.o
 .text.or256    0x0000000000000000       0x44 obj/uint256.o
 .ARM.exidx.text.or256
                0x0000000000000000        0x8 obj/uint256.o
 .text.mul128   0x0000000000000000      0x11c obj/uint256.o
 .ARM.exidx.text.mul128
                0x0000000000000000        0x8 obj/uint256.o
 .text.read_u64_be
                0x0000000000000000       0x22 obj/uint256.o
 .ARM.exidx.text.read_u64_be
                0x0000000000000000        0x8 obj/uint256.o
 .text.divmod128
                0x0000000000000000      0x330 obj/uint256.o
 .ARM.exidx.text.divmod128
                0x0000000000000000        0x8 obj/uint256.o
 .text.tostring128
                0x0000000000000000       0xac obj/uint256.o
 .ARM.exidx.text.tostring128
                0x0000000000000000        0x8 obj/uint256.o
 .llvm_addrsig  0x0000000000000000        0x0 obj/uint256.o
 .text          0x0000000000000000        0x0 obj/usbd_ccid_cmd.o
 .comment       0x0000000000000000       0x2e obj/usbd_ccid_cmd.o
 .note.GNU-stack
                0x0000000000000000        0x0 obj/usbd_ccid_cmd.o
 .ARM.attributes
                0x0000000000000000       0x41 obj/usbd_ccid_cmd.o
 .llvm_addrsig  0x0000000000000000        0x0 obj/usbd_ccid_cmd.o
 .text          0x0000000000000000        0x0 obj/usbd_ccid_core.o
 .comment       0x0000000000000000       0x2e obj/usbd_ccid_core.o
 .note.GNU-stack
                0x0000000000000000        0x0 obj/usbd_ccid_core.o
 .ARM.attributes
                0x0000000000000000       0x41 obj/usbd_ccid_core.o
 .llvm_addrsig  0x0000000000000000        0x0 obj/usbd_ccid_core.o
 .text          0x0000000000000000        0x0 obj/usbd_ccid_if.o
 .comment       0x0000000000000000       0x2e obj/usbd_ccid_if.o
 .note.GNU-stack
                0x0000000000000000        0x0 obj/usbd_ccid_if.o
 .ARM.attributes
                0x0000000000000000       0x41 obj/usbd_ccid_if.o
 .llvm_addrsig  0x0000000000000000        0x0 obj/usbd_ccid_if.o
 .text          0x0000000000000000        0x0 obj/usbd_conf.o
 .text.USBD_LL_FlushEP
                0x0000000000000000        0x4 obj/usbd_conf.o
 .ARM.exidx.text.USBD_LL_FlushEP
                0x0000000000000000        0x8 obj/usbd_conf.o
 .llvm_addrsig  0x0000000000000000        0x2 obj/usbd_conf.o
 .text          0x0000000000000000        0x0 obj/usbd_core.o
 .text.USBD_RegisterClass
                0x0000000000000000       0x10 obj/usbd_core.o
 .ARM.exidx.text.USBD_RegisterClass
                0x0000000000000000        0x8 obj/usbd_core.o
 .text.USBD_Stop
                0x0000000000000000       0x36 obj/usbd_core.o
 .ARM.exidx.text.USBD_Stop
                0x0000000000000000        0x8 obj/usbd_core.o
 .text.USBD_RunTestMode
                0x0000000000000000        0x4 obj/usbd_core.o
 .ARM.exidx.text.USBD_RunTestMode
                0x0000000000000000        0x8 obj/usbd_core.o
 .text.USBD_LL_IsoINIncomplete
                0x0000000000000000        0x4 obj/usbd_core.o
 .ARM.exidx.text.USBD_LL_IsoINIncomplete
                0x0000000000000000        0x8 obj/usbd_core.o
 .text.USBD_LL_IsoOUTIncomplete
                0x0000000000000000        0x4 obj/usbd_core.o
 .ARM.exidx.text.USBD_LL_IsoOUTIncomplete
                0x0000000000000000        0x8 obj/usbd_core.o
 .text.USBD_LL_DevConnected
                0x0000000000000000        0x4 obj/usbd_core.o
 .ARM.exidx.text.USBD_LL_DevConnected
                0x0000000000000000        0x8 obj/usbd_core.o
 .text.USBD_LL_DevDisconnected
                0x0000000000000000        0xa obj/usbd_core.o
 .ARM.exidx.text.USBD_LL_DevDisconnected
                0x0000000000000000        0x8 obj/usbd_core.o
 .llvm_addrsig  0x0000000000000000        0x0 obj/usbd_core.o
 .text          0x0000000000000000        0x0 obj/usbd_ctlreq.o
 .text.USBD_CtlError
                0x0000000000000000       0x14 obj/usbd_ctlreq.o
 .ARM.exidx.text.USBD_CtlError
                0x0000000000000000        0x8 obj/usbd_ctlreq.o
 .text.USBD_GetString
                0x0000000000000000       0x52 obj/usbd_ctlreq.o
 .ARM.exidx.text.USBD_GetString
                0x0000000000000000        0x8 obj/usbd_ctlreq.o
 .text.USBD_GetLen
                0x0000000000000000       0x1e obj/usbd_ctlreq.o
 .ARM.exidx.text.USBD_GetLen
                0x0000000000000000        0x8 obj/usbd_ctlreq.o
 .llvm_addrsig  0x0000000000000000        0x0 obj/usbd_ctlreq.o
 .text          0x0000000000000000        0x0 obj/usbd_hid.o
 .llvm_addrsig  0x0000000000000000        0x0 obj/usbd_hid.o
 .text          0x0000000000000000        0x0 obj/usbd_impl.o
 .rodata.C_webusb_url_descriptor
                0x0000000000000000        0x3 obj/usbd_impl.o
 .llvm_addrsig  0x0000000000000000       0x64 obj/usbd_impl.o
 .text          0x0000000000000000        0x0 obj/usbd_ioreq.o
 .text.USBD_CtlPrepareRx
                0x0000000000000000       0x18 obj/usbd_ioreq.o
 .ARM.exidx.text.USBD_CtlPrepareRx
                0x0000000000000000        0x8 obj/usbd_ioreq.o
 .llvm_addrsig  0x0000000000000000        0x0 obj/usbd_ioreq.o
 .text          0x0000000000000000        0x0 obj/utils.o
 .text.local_strchr
                0x0000000000000000       0x26 obj/utils.o
 .ARM.exidx.text.local_strchr
                0x0000000000000000        0x8 obj/utils.o
 .llvm_addrsig  0x0000000000000000        0x0 obj/utils.o
 .text          0x0000000000000000        0x0 obj/ux_flow_engine.o
 .text.ux_flow_get_current
                0x0000000000000000       0x40 obj/ux_flow_engine.o
 .ARM.exidx.text.ux_flow_get_current
                0x0000000000000000        0x8 obj/ux_flow_engine.o
 .text.ux_flow_next_no_display
                0x0000000000000000        0xa obj/ux_flow_engine.o
 .ARM.exidx.text.ux_flow_next_no_display
                0x0000000000000000        0x8 obj/ux_flow_engine.o
 .text.ux_flow_error
                0x0000000000000000       0x58 obj/ux_flow_engine.o
 .ARM.exidx.text.ux_flow_error
                0x0000000000000000        0x8 obj/ux_flow_engine.o
 .text.ux_flow_uninit
                0x0000000000000000       0x18 obj/ux_flow_engine.o
 .ARM.exidx.text.ux_flow_uninit
                0x0000000000000000        0x8 obj/ux_flow_engine.o
 .text.ux_flow_relayout
                0x0000000000000000       0x20 obj/ux_flow_engine.o
 .ARM.exidx.text.ux_flow_relayout
                0x0000000000000000        0x8 obj/ux_flow_engine.o
 .llvm_addrsig  0x0000000000000000        0x1 obj/ux_flow_engine.o
 .text          0x0000000000000000        0x0 obj/ux_layout_bb.o
 .text.ux_layout_bb_init
                0x0000000000000000       0x4c obj/ux_layout_bb.o
 .ARM.exidx.text.ux_layout_bb_init
                0x0000000000000000        0x8 obj/ux_layout_bb.o
 .llvm_addrsig  0x0000000000000000        0x5 obj/ux_layout_bb.o
 .text          0x0000000000000000        0x0 obj/ux_layout_bn.o
 .llvm_addrsig  0x0000000000000000        0x1 obj/ux_layout_bn.o
 .text          0x0000000000000000        0x0 obj/ux_layout_bnn.o
 .comment       0x0000000000000000       0x2e obj/ux_layout_bnn.o
 .note.GNU-stack
                0x0000000000000000        0x0 obj/ux_layout_bnn.o
 .ARM.attributes
                0x0000000000000000       0x41 obj/ux_layout_bnn.o
 .llvm_addrsig  0x0000000000000000        0x0 obj/ux_layout_bnn.o
 .text          0x0000000000000000        0x0 obj/ux_layout_bnnn.o
 .comment       0x0000000000000000       0x2e obj/ux_layout_bnnn.o
 .note.GNU-stack
                0x0000000000000000        0x0 obj/ux_layout_bnnn.o
 .ARM.attributes
                0x0000000000000000       0x41 obj/ux_layout_bnnn.o
 .llvm_addrsig  0x0000000000000000        0x0 obj/ux_layout_bnnn.o
 .text          0x0000000000000000        0x0 obj/ux_layout_nn.o
 .llvm_addrsig  0x0000000000000000        0x1 obj/ux_layout_nn.o
 .text          0x0000000000000000        0x0 obj/ux_layout_nnbnn.o
 .text.ux_layout_nnbnn_prepro
                0x0000000000000000       0x58 obj/ux_layout_nnbnn.o
 .ARM.exidx.text.ux_layout_nnbnn_prepro
                0x0000000000000000        0x8 obj/ux_layout_nnbnn.o
 .text.ux_layout_nnbnn_init
                0x0000000000000000       0x4c obj/ux_layout_nnbnn.o
 .ARM.exidx.text.ux_layout_nnbnn_init
                0x0000000000000000        0x8 obj/ux_layout_nnbnn.o
 .rodata.ux_layout_nnbnn_elements
                0x0000000000000000       0xc0 obj/ux_layout_nnbnn.o
 .debug_str     0x0000000000000000      0x2ba obj/ux_layout_nnbnn.o
 .debug_loc     0x0000000000000000       0x4f obj/ux_layout_nnbnn.o
 .debug_abbrev  0x0000000000000000       0xef obj/ux_layout_nnbnn.o
 .debug_info    0x0000000000000000      0x257 obj/ux_layout_nnbnn.o
 .debug_ranges  0x0000000000000000       0x18 obj/ux_layout_nnbnn.o
 .debug_macinfo
                0x0000000000000000        0x1 obj/ux_layout_nnbnn.o
 .comment       0x0000000000000000       0x2e obj/ux_layout_nnbnn.o
 .note.GNU-stack
                0x0000000000000000        0x0 obj/ux_layout_nnbnn.o
 .ARM.attributes
                0x0000000000000000       0x43 obj/ux_layout_nnbnn.o
 .debug_frame   0x0000000000000000       0x48 obj/ux_layout_nnbnn.o
 .debug_line    0x0000000000000000      0x13d obj/ux_layout_nnbnn.o
 .llvm_addrsig  0x0000000000000000        0x6 obj/ux_layout_nnbnn.o
 .text          0x0000000000000000        0x0 obj/ux_layout_nnn.o
 .comment       0x0000000000000000       0x2e obj/ux_layout_nnn.o
 .note.GNU-stack
                0x0000000000000000        0x0 obj/ux_layout_nnn.o
 .ARM.attributes
                0x0000000000000000       0x41 obj/ux_layout_nnn.o
 .llvm_addrsig  0x0000000000000000        0x0 obj/ux_layout_nnn.o
 .text          0x0000000000000000        0x0 obj/ux_layout_nnnn.o
 .comment       0x0000000000000000       0x2e obj/ux_layout_nnnn.o
 .note.GNU-stack
                0x0000000000000000        0x0 obj/ux_layout_nnnn.o
 .ARM.attributes
                0x0000000000000000       0x41 obj/ux_layout_nnnn.o
 .llvm_addrsig  0x0000000000000000        0x0 obj/ux_layout_nnnn.o
 .text          0x0000000000000000        0x0 obj/ux_layout_paging.o
 .text.ux_layout_paging_reset
                0x0000000000000000       0x14 obj/ux_layout_paging.o
 .ARM.exidx.text.ux_layout_paging_reset
                0x0000000000000000        0x8 obj/ux_layout_paging.o
 .llvm_addrsig  0x0000000000000000        0x3 obj/ux_layout_paging.o
 .text          0x0000000000000000        0x0 obj/ux_layout_pb.o
 .llvm_addrsig  0x0000000000000000        0x6 obj/ux_layout_pb.o
 .text          0x0000000000000000        0x0 obj/ux_layout_pbb.o
 .llvm_addrsig  0x0000000000000000        0x6 obj/ux_layout_pbb.o
 .text          0x0000000000000000        0x0 obj/ux_layout_pn.o
 .text.ux_layout_pn_prepro
                0x0000000000000000       0x58 obj/ux_layout_pn.o
 .ARM.exidx.text.ux_layout_pn_prepro
                0x0000000000000000        0x8 obj/ux_layout_pn.o
 .text.ux_layout_pn_init
                0x0000000000000000       0x4c obj/ux_layout_pn.o
 .ARM.exidx.text.ux_layout_pn_init
                0x0000000000000000        0x8 obj/ux_layout_pn.o
 .rodata.ux_layout_pn_elements
                0x0000000000000000       0xa0 obj/ux_layout_pn.o
 .debug_str     0x0000000000000000      0x2e3 obj/ux_layout_pn.o
 .debug_loc     0x0000000000000000       0x4f obj/ux_layout_pn.o
 .debug_abbrev  0x0000000000000000       0xef obj/ux_layout_pn.o
 .debug_info    0x0000000000000000      0x2d0 obj/ux_layout_pn.o
 .debug_ranges  0x0000000000000000       0x18 obj/ux_layout_pn.o
 .debug_macinfo
                0x0000000000000000        0x1 obj/ux_layout_pn.o
 .comment       0x0000000000000000       0x2e obj/ux_layout_pn.o
 .note.GNU-stack
                0x0000000000000000        0x0 obj/ux_layout_pn.o
 .ARM.attributes
                0x0000000000000000       0x43 obj/ux_layout_pn.o
 .debug_frame   0x0000000000000000       0x48 obj/ux_layout_pn.o
 .debug_line    0x0000000000000000      0x16a obj/ux_layout_pn.o
 .llvm_addrsig  0x0000000000000000        0x6 obj/ux_layout_pn.o
 .text          0x0000000000000000        0x0 obj/ux_layout_pnn.o
 .llvm_addrsig  0x0000000000000000        0x1 obj/ux_layout_pnn.o
 .text          0x0000000000000000        0x0 obj/ux_layout_utils.o
 .text.ux_layout_set_timeout
                0x0000000000000000       0x28 obj/ux_layout_utils.o
 .ARM.exidx.text.ux_layout_set_timeout
                0x0000000000000000        0x8 obj/ux_layout_utils.o
 .text.ux_layout_ticker_callback
                0x0000000000000000       0x28 obj/ux_layout_utils.o
 .ARM.exidx.text.ux_layout_ticker_callback
                0x0000000000000000        0x8 obj/ux_layout_utils.o
 .llvm_addrsig  0x0000000000000000        0x2 obj/ux_layout_utils.o
 .text          0x0000000000000000        0x0 obj/ux_legacy.o
 .text.debug_wait_displayed
                0x0000000000000000       0x14 obj/ux_legacy.o
 .ARM.exidx.text.debug_wait_displayed
                0x0000000000000000        0x8 obj/ux_legacy.o
 .rodata.clear_element
                0x0000000000000000       0x20 obj/ux_legacy.o
 .rodata.str1.1
                0x0000000000000000        0xf obj/ux_legacy.o
 .rodata.printf_element
                0x0000000000000000       0x20 obj/ux_legacy.o
 .debug_str     0x0000000000000000      0x237 obj/ux_legacy.o
 .debug_abbrev  0x0000000000000000       0x9d obj/ux_legacy.o
 .debug_info    0x0000000000000000      0x1d4 obj/ux_legacy.o
 .debug_macinfo
                0x0000000000000000        0x1 obj/ux_legacy.o
 .comment       0x0000000000000000       0x2e obj/ux_legacy.o
 .note.GNU-stack
                0x0000000000000000        0x0 obj/ux_legacy.o
 .ARM.attributes
                0x0000000000000000       0x43 obj/ux_legacy.o
 .debug_frame   0x0000000000000000       0x28 obj/ux_legacy.o
 .debug_line    0x0000000000000000       0xd2 obj/ux_legacy.o
 .llvm_addrsig  0x0000000000000000        0x1 obj/ux_legacy.o
 .text          0x0000000000000000        0x0 obj/ux_menulist.o
 .text.ux_menulist_button
                0x0000000000000000       0x70 obj/ux_menulist.o
 .ARM.exidx.text.ux_menulist_button
                0x0000000000000000        0x8 obj/ux_menulist.o
 .text.ux_menulist_refresh
                0x0000000000000000       0x44 obj/ux_menulist.o
 .ARM.exidx.text.ux_menulist_refresh
                0x0000000000000000        0x8 obj/ux_menulist.o
 .text.ux_menulist_init_select
                0x0000000000000000       0x3c obj/ux_menulist.o
 .ARM.exidx.text.ux_menulist_init_select
                0x0000000000000000        0x8 obj/ux_menulist.o
 .text.ux_menulist_init
                0x0000000000000000        0xa obj/ux_menulist.o
 .ARM.exidx.text.ux_menulist_init
                0x0000000000000000        0x8 obj/ux_menulist.o
 .rodata.ux_menulist_conststep
                0x0000000000000000       0x10 obj/ux_menulist.o
 .rodata.ux_menulist_constflow
                0x0000000000000000        0x8 obj/ux_menulist.o
 .debug_str     0x0000000000000000      0x214 obj/ux_menulist.o
 .debug_loc     0x0000000000000000       0xeb obj/ux_menulist.o
 .debug_abbrev  0x0000000000000000       0xfc obj/ux_menulist.o
 .debug_info    0x0000000000000000      0x219 obj/ux_menulist.o
 .debug_ranges  0x0000000000000000       0x28 obj/ux_menulist.o
 .debug_macinfo
                0x0000000000000000        0x1 obj/ux_menulist.o
 .comment       0x0000000000000000       0x2e obj/ux_menulist.o
 .note.GNU-stack
                0x0000000000000000        0x0 obj/ux_menulist.o
 .ARM.attributes
                0x0000000000000000       0x43 obj/ux_menulist.o
 .debug_frame   0x0000000000000000       0x80 obj/ux_menulist.o
 .debug_line    0x0000000000000000      0x1d0 obj/ux_menulist.o
 .llvm_addrsig  0x0000000000000000        0x5 obj/ux_menulist.o
 .text          0x0000000000000000        0x0 obj/ux_stack.o
 .text.ux_stack_is_element_array_present
                0x0000000000000000       0x24 obj/ux_stack.o
 .ARM.exidx.text.ux_stack_is_element_array_present
                0x0000000000000000        0x8 obj/ux_stack.o
 .text.ux_stack_redisplay
                0x0000000000000000       0x34 obj/ux_stack.o
 .ARM.exidx.text.ux_stack_redisplay
                0x0000000000000000        0x8 obj/ux_stack.o
 .text.ux_stack_insert
                0x0000000000000000       0x2c obj/ux_stack.o
 .ARM.exidx.text.ux_stack_insert
                0x0000000000000000        0x8 obj/ux_stack.o
 .text.ux_stack_remove
                0x0000000000000000       0x14 obj/ux_stack.o
 .ARM.exidx.text.ux_stack_remove
                0x0000000000000000        0x8 obj/ux_stack.o
 .text.ux_stack_display_element_callback
                0x0000000000000000       0x34 obj/ux_stack.o
 .ARM.exidx.text.ux_stack_display_element_callback
                0x0000000000000000        0x8 obj/ux_stack.o
 .llvm_addrsig  0x0000000000000000        0x1 obj/ux_stack.o
 .data          0x0000000000000000        0x0 /home/jingxu/workspace/ledgerApp/gcc-arm-none-eabi-10-2020-q4-major-x86_64-linux/gcc-arm-none-eabi-10-2020-q4-major/bin/../lib/gcc/arm-none-eabi/10.2.1/thumb/v6-m/nofp/libgcc.a(_udivsi3.o)
 .bss           0x0000000000000000        0x0 /home/jingxu/workspace/ledgerApp/gcc-arm-none-eabi-10-2020-q4-major-x86_64-linux/gcc-arm-none-eabi-10-2020-q4-major/bin/../lib/gcc/arm-none-eabi/10.2.1/thumb/v6-m/nofp/libgcc.a(_udivsi3.o)
 .text          0x0000000000000000      0x1d4 /home/jingxu/workspace/ledgerApp/gcc-arm-none-eabi-10-2020-q4-major-x86_64-linux/gcc-arm-none-eabi-10-2020-q4-major/bin/../lib/gcc/arm-none-eabi/10.2.1/thumb/v6-m/nofp/libgcc.a(_divsi3.o)
 .data          0x0000000000000000        0x0 /home/jingxu/workspace/ledgerApp/gcc-arm-none-eabi-10-2020-q4-major-x86_64-linux/gcc-arm-none-eabi-10-2020-q4-major/bin/../lib/gcc/arm-none-eabi/10.2.1/thumb/v6-m/nofp/libgcc.a(_divsi3.o)
 .bss           0x0000000000000000        0x0 /home/jingxu/workspace/ledgerApp/gcc-arm-none-eabi-10-2020-q4-major-x86_64-linux/gcc-arm-none-eabi-10-2020-q4-major/bin/../lib/gcc/arm-none-eabi/10.2.1/thumb/v6-m/nofp/libgcc.a(_divsi3.o)
 .debug_frame   0x0000000000000000       0x20 /home/jingxu/workspace/ledgerApp/gcc-arm-none-eabi-10-2020-q4-major-x86_64-linux/gcc-arm-none-eabi-10-2020-q4-major/bin/../lib/gcc/arm-none-eabi/10.2.1/thumb/v6-m/nofp/libgcc.a(_divsi3.o)
 .ARM.attributes
                0x0000000000000000       0x1e /home/jingxu/workspace/ledgerApp/gcc-arm-none-eabi-10-2020-q4-major-x86_64-linux/gcc-arm-none-eabi-10-2020-q4-major/bin/../lib/gcc/arm-none-eabi/10.2.1/thumb/v6-m/nofp/libgcc.a(_divsi3.o)
 .data          0x0000000000000000        0x0 /home/jingxu/workspace/ledgerApp/gcc-arm-none-eabi-10-2020-q4-major-x86_64-linux/gcc-arm-none-eabi-10-2020-q4-major/bin/../lib/gcc/arm-none-eabi/10.2.1/thumb/v6-m/nofp/libgcc.a(_dvmd_tls.o)
 .bss           0x0000000000000000        0x0 /home/jingxu/workspace/ledgerApp/gcc-arm-none-eabi-10-2020-q4-major-x86_64-linux/gcc-arm-none-eabi-10-2020-q4-major/bin/../lib/gcc/arm-none-eabi/10.2.1/thumb/v6-m/nofp/libgcc.a(_dvmd_tls.o)
 .data          0x0000000000000000        0x0 /home/jingxu/workspace/ledgerApp/gcc-arm-none-eabi-10-2020-q4-major-x86_64-linux/gcc-arm-none-eabi-10-2020-q4-major/bin/../lib/gcc/arm-none-eabi/10.2.1/thumb/v6-m/nofp/libgcc.a(_lshrdi3.o)
 .bss           0x0000000000000000        0x0 /home/jingxu/workspace/ledgerApp/gcc-arm-none-eabi-10-2020-q4-major-x86_64-linux/gcc-arm-none-eabi-10-2020-q4-major/bin/../lib/gcc/arm-none-eabi/10.2.1/thumb/v6-m/nofp/libgcc.a(_lshrdi3.o)
 .data          0x0000000000000000        0x0 /home/jingxu/workspace/ledgerApp/gcc-arm-none-eabi-10-2020-q4-major-x86_64-linux/gcc-arm-none-eabi-10-2020-q4-major/bin/../lib/gcc/arm-none-eabi/10.2.1/thumb/v6-m/nofp/libgcc.a(_ashldi3.o)
 .bss           0x0000000000000000        0x0 /home/jingxu/workspace/ledgerApp/gcc-arm-none-eabi-10-2020-q4-major-x86_64-linux/gcc-arm-none-eabi-10-2020-q4-major/bin/../lib/gcc/arm-none-eabi/10.2.1/thumb/v6-m/nofp/libgcc.a(_ashldi3.o)
 .text          0x0000000000000000       0x5c /home/jingxu/workspace/ledgerApp/gcc-arm-none-eabi-10-2020-q4-major-x86_64-linux/gcc-arm-none-eabi-10-2020-q4-major/bin/../lib/gcc/arm-none-eabi/10.2.1/thumb/v6-m/nofp/libgcc.a(_muldi3.o)
 .data          0x0000000000000000        0x0 /home/jingxu/workspace/ledgerApp/gcc-arm-none-eabi-10-2020-q4-major-x86_64-linux/gcc-arm-none-eabi-10-2020-q4-major/bin/../lib/gcc/arm-none-eabi/10.2.1/thumb/v6-m/nofp/libgcc.a(_muldi3.o)
 .bss           0x0000000000000000        0x0 /home/jingxu/workspace/ledgerApp/gcc-arm-none-eabi-10-2020-q4-major-x86_64-linux/gcc-arm-none-eabi-10-2020-q4-major/bin/../lib/gcc/arm-none-eabi/10.2.1/thumb/v6-m/nofp/libgcc.a(_muldi3.o)
 .debug_frame   0x0000000000000000       0x34 /home/jingxu/workspace/ledgerApp/gcc-arm-none-eabi-10-2020-q4-major-x86_64-linux/gcc-arm-none-eabi-10-2020-q4-major/bin/../lib/gcc/arm-none-eabi/10.2.1/thumb/v6-m/nofp/libgcc.a(_muldi3.o)
 .ARM.attributes
                0x0000000000000000       0x2c /home/jingxu/workspace/ledgerApp/gcc-arm-none-eabi-10-2020-q4-major-x86_64-linux/gcc-arm-none-eabi-10-2020-q4-major/bin/../lib/gcc/arm-none-eabi/10.2.1/thumb/v6-m/nofp/libgcc.a(_muldi3.o)
 .text          0x0000000000000000        0x0 /home/jingxu/workspace/ledgerApp/gcc-arm-none-eabi-10-2020-q4-major-x86_64-linux/gcc-arm-none-eabi-10-2020-q4-major/bin/../lib/gcc/arm-none-eabi/10.2.1/../../../../arm-none-eabi/lib/thumb/v6-m/nofp/libc.a(lib_a-aeabi_memclr.o)
 .data          0x0000000000000000        0x0 /home/jingxu/workspace/ledgerApp/gcc-arm-none-eabi-10-2020-q4-major-x86_64-linux/gcc-arm-none-eabi-10-2020-q4-major/bin/../lib/gcc/arm-none-eabi/10.2.1/../../../../arm-none-eabi/lib/thumb/v6-m/nofp/libc.a(lib_a-aeabi_memclr.o)
 .bss           0x0000000000000000        0x0 /home/jingxu/workspace/ledgerApp/gcc-arm-none-eabi-10-2020-q4-major-x86_64-linux/gcc-arm-none-eabi-10-2020-q4-major/bin/../lib/gcc/arm-none-eabi/10.2.1/../../../../arm-none-eabi/lib/thumb/v6-m/nofp/libc.a(lib_a-aeabi_memclr.o)
 .text          0x0000000000000000        0x0 /home/jingxu/workspace/ledgerApp/gcc-arm-none-eabi-10-2020-q4-major-x86_64-linux/gcc-arm-none-eabi-10-2020-q4-major/bin/../lib/gcc/arm-none-eabi/10.2.1/../../../../arm-none-eabi/lib/thumb/v6-m/nofp/libc.a(lib_a-aeabi_memcpy.o)
 .data          0x0000000000000000        0x0 /home/jingxu/workspace/ledgerApp/gcc-arm-none-eabi-10-2020-q4-major-x86_64-linux/gcc-arm-none-eabi-10-2020-q4-major/bin/../lib/gcc/arm-none-eabi/10.2.1/../../../../arm-none-eabi/lib/thumb/v6-m/nofp/libc.a(lib_a-aeabi_memcpy.o)
 .bss           0x0000000000000000        0x0 /home/jingxu/workspace/ledgerApp/gcc-arm-none-eabi-10-2020-q4-major-x86_64-linux/gcc-arm-none-eabi-10-2020-q4-major/bin/../lib/gcc/arm-none-eabi/10.2.1/../../../../arm-none-eabi/lib/thumb/v6-m/nofp/libc.a(lib_a-aeabi_memcpy.o)
 .text          0x0000000000000000        0x0 /home/jingxu/workspace/ledgerApp/gcc-arm-none-eabi-10-2020-q4-major-x86_64-linux/gcc-arm-none-eabi-10-2020-q4-major/bin/../lib/gcc/arm-none-eabi/10.2.1/../../../../arm-none-eabi/lib/thumb/v6-m/nofp/libc.a(lib_a-aeabi_memmove.o)
 .data          0x0000000000000000        0x0 /home/jingxu/workspace/ledgerApp/gcc-arm-none-eabi-10-2020-q4-major-x86_64-linux/gcc-arm-none-eabi-10-2020-q4-major/bin/../lib/gcc/arm-none-eabi/10.2.1/../../../../arm-none-eabi/lib/thumb/v6-m/nofp/libc.a(lib_a-aeabi_memmove.o)
 .bss           0x0000000000000000        0x0 /home/jingxu/workspace/ledgerApp/gcc-arm-none-eabi-10-2020-q4-major-x86_64-linux/gcc-arm-none-eabi-10-2020-q4-major/bin/../lib/gcc/arm-none-eabi/10.2.1/../../../../arm-none-eabi/lib/thumb/v6-m/nofp/libc.a(lib_a-aeabi_memmove.o)
 .text          0x0000000000000000        0x0 /home/jingxu/workspace/ledgerApp/gcc-arm-none-eabi-10-2020-q4-major-x86_64-linux/gcc-arm-none-eabi-10-2020-q4-major/bin/../lib/gcc/arm-none-eabi/10.2.1/../../../../arm-none-eabi/lib/thumb/v6-m/nofp/libc.a(lib_a-aeabi_memset.o)
 .data          0x0000000000000000        0x0 /home/jingxu/workspace/ledgerApp/gcc-arm-none-eabi-10-2020-q4-major-x86_64-linux/gcc-arm-none-eabi-10-2020-q4-major/bin/../lib/gcc/arm-none-eabi/10.2.1/../../../../arm-none-eabi/lib/thumb/v6-m/nofp/libc.a(lib_a-aeabi_memset.o)
 .bss           0x0000000000000000        0x0 /home/jingxu/workspace/ledgerApp/gcc-arm-none-eabi-10-2020-q4-major-x86_64-linux/gcc-arm-none-eabi-10-2020-q4-major/bin/../lib/gcc/arm-none-eabi/10.2.1/../../../../arm-none-eabi/lib/thumb/v6-m/nofp/libc.a(lib_a-aeabi_memset.o)
 .text          0x0000000000000000        0x0 /home/jingxu/workspace/ledgerApp/gcc-arm-none-eabi-10-2020-q4-major-x86_64-linux/gcc-arm-none-eabi-10-2020-q4-major/bin/../lib/gcc/arm-none-eabi/10.2.1/../../../../arm-none-eabi/lib/thumb/v6-m/nofp/libc.a(lib_a-explicit_bzero.o)
 .data          0x0000000000000000        0x0 /home/jingxu/workspace/ledgerApp/gcc-arm-none-eabi-10-2020-q4-major-x86_64-linux/gcc-arm-none-eabi-10-2020-q4-major/bin/../lib/gcc/arm-none-eabi/10.2.1/../../../../arm-none-eabi/lib/thumb/v6-m/nofp/libc.a(lib_a-explicit_bzero.o)
 .bss           0x0000000000000000        0x0 /home/jingxu/workspace/ledgerApp/gcc-arm-none-eabi-10-2020-q4-major-x86_64-linux/gcc-arm-none-eabi-10-2020-q4-major/bin/../lib/gcc/arm-none-eabi/10.2.1/../../../../arm-none-eabi/lib/thumb/v6-m/nofp/libc.a(lib_a-explicit_bzero.o)
 .text          0x0000000000000000        0x0 /home/jingxu/workspace/ledgerApp/gcc-arm-none-eabi-10-2020-q4-major-x86_64-linux/gcc-arm-none-eabi-10-2020-q4-major/bin/../lib/gcc/arm-none-eabi/10.2.1/../../../../arm-none-eabi/lib/thumb/v6-m/nofp/libc.a(lib_a-memcmp.o)
 .data          0x0000000000000000        0x0 /home/jingxu/workspace/ledgerApp/gcc-arm-none-eabi-10-2020-q4-major-x86_64-linux/gcc-arm-none-eabi-10-2020-q4-major/bin/../lib/gcc/arm-none-eabi/10.2.1/../../../../arm-none-eabi/lib/thumb/v6-m/nofp/libc.a(lib_a-memcmp.o)
 .bss           0x0000000000000000        0x0 /home/jingxu/workspace/ledgerApp/gcc-arm-none-eabi-10-2020-q4-major-x86_64-linux/gcc-arm-none-eabi-10-2020-q4-major/bin/../lib/gcc/arm-none-eabi/10.2.1/../../../../arm-none-eabi/lib/thumb/v6-m/nofp/libc.a(lib_a-memcmp.o)
 .text          0x0000000000000000        0x0 /home/jingxu/workspace/ledgerApp/gcc-arm-none-eabi-10-2020-q4-major-x86_64-linux/gcc-arm-none-eabi-10-2020-q4-major/bin/../lib/gcc/arm-none-eabi/10.2.1/../../../../arm-none-eabi/lib/thumb/v6-m/nofp/libc.a(lib_a-memcpy-stub.o)
 .data          0x0000000000000000        0x0 /home/jingxu/workspace/ledgerApp/gcc-arm-none-eabi-10-2020-q4-major-x86_64-linux/gcc-arm-none-eabi-10-2020-q4-major/bin/../lib/gcc/arm-none-eabi/10.2.1/../../../../arm-none-eabi/lib/thumb/v6-m/nofp/libc.a(lib_a-memcpy-stub.o)
 .bss           0x0000000000000000        0x0 /home/jingxu/workspace/ledgerApp/gcc-arm-none-eabi-10-2020-q4-major-x86_64-linux/gcc-arm-none-eabi-10-2020-q4-major/bin/../lib/gcc/arm-none-eabi/10.2.1/../../../../arm-none-eabi/lib/thumb/v6-m/nofp/libc.a(lib_a-memcpy-stub.o)
 .text          0x0000000000000000        0x0 /home/jingxu/workspace/ledgerApp/gcc-arm-none-eabi-10-2020-q4-major-x86_64-linux/gcc-arm-none-eabi-10-2020-q4-major/bin/../lib/gcc/arm-none-eabi/10.2.1/../../../../arm-none-eabi/lib/thumb/v6-m/nofp/libc.a(lib_a-memmove.o)
 .data          0x0000000000000000        0x0 /home/jingxu/workspace/ledgerApp/gcc-arm-none-eabi-10-2020-q4-major-x86_64-linux/gcc-arm-none-eabi-10-2020-q4-major/bin/../lib/gcc/arm-none-eabi/10.2.1/../../../../arm-none-eabi/lib/thumb/v6-m/nofp/libc.a(lib_a-memmove.o)
 .bss           0x0000000000000000        0x0 /home/jingxu/workspace/ledgerApp/gcc-arm-none-eabi-10-2020-q4-major-x86_64-linux/gcc-arm-none-eabi-10-2020-q4-major/bin/../lib/gcc/arm-none-eabi/10.2.1/../../../../arm-none-eabi/lib/thumb/v6-m/nofp/libc.a(lib_a-memmove.o)
 .text          0x0000000000000000        0x0 /home/jingxu/workspace/ledgerApp/gcc-arm-none-eabi-10-2020-q4-major-x86_64-linux/gcc-arm-none-eabi-10-2020-q4-major/bin/../lib/gcc/arm-none-eabi/10.2.1/../../../../arm-none-eabi/lib/thumb/v6-m/nofp/libc.a(lib_a-memset.o)
 .data          0x0000000000000000        0x0 /home/jingxu/workspace/ledgerApp/gcc-arm-none-eabi-10-2020-q4-major-x86_64-linux/gcc-arm-none-eabi-10-2020-q4-major/bin/../lib/gcc/arm-none-eabi/10.2.1/../../../../arm-none-eabi/lib/thumb/v6-m/nofp/libc.a(lib_a-memset.o)
 .bss           0x0000000000000000        0x0 /home/jingxu/workspace/ledgerApp/gcc-arm-none-eabi-10-2020-q4-major-x86_64-linux/gcc-arm-none-eabi-10-2020-q4-major/bin/../lib/gcc/arm-none-eabi/10.2.1/../../../../arm-none-eabi/lib/thumb/v6-m/nofp/libc.a(lib_a-memset.o)
 .data          0x0000000000000000        0x0 /home/jingxu/workspace/ledgerApp/gcc-arm-none-eabi-10-2020-q4-major-x86_64-linux/gcc-arm-none-eabi-10-2020-q4-major/bin/../lib/gcc/arm-none-eabi/10.2.1/../../../../arm-none-eabi/lib/thumb/v6-m/nofp/libc.a(lib_a-setjmp.o)
 .bss           0x0000000000000000        0x0 /home/jingxu/workspace/ledgerApp/gcc-arm-none-eabi-10-2020-q4-major-x86_64-linux/gcc-arm-none-eabi-10-2020-q4-major/bin/../lib/gcc/arm-none-eabi/10.2.1/../../../../arm-none-eabi/lib/thumb/v6-m/nofp/libc.a(lib_a-setjmp.o)
 .text          0x0000000000000000        0x0 /home/jingxu/workspace/ledgerApp/gcc-arm-none-eabi-10-2020-q4-major-x86_64-linux/gcc-arm-none-eabi-10-2020-q4-major/bin/../lib/gcc/arm-none-eabi/10.2.1/../../../../arm-none-eabi/lib/thumb/v6-m/nofp/libc.a(lib_a-strcat.o)
 .data          0x0000000000000000        0x0 /home/jingxu/workspace/ledgerApp/gcc-arm-none-eabi-10-2020-q4-major-x86_64-linux/gcc-arm-none-eabi-10-2020-q4-major/bin/../lib/gcc/arm-none-eabi/10.2.1/../../../../arm-none-eabi/lib/thumb/v6-m/nofp/libc.a(lib_a-strcat.o)
 .bss           0x0000000000000000        0x0 /home/jingxu/workspace/ledgerApp/gcc-arm-none-eabi-10-2020-q4-major-x86_64-linux/gcc-arm-none-eabi-10-2020-q4-major/bin/../lib/gcc/arm-none-eabi/10.2.1/../../../../arm-none-eabi/lib/thumb/v6-m/nofp/libc.a(lib_a-strcat.o)
 .data          0x0000000000000000        0x0 /home/jingxu/workspace/ledgerApp/gcc-arm-none-eabi-10-2020-q4-major-x86_64-linux/gcc-arm-none-eabi-10-2020-q4-major/bin/../lib/gcc/arm-none-eabi/10.2.1/../../../../arm-none-eabi/lib/thumb/v6-m/nofp/libc.a(lib_a-strcmp.o)
 .bss           0x0000000000000000        0x0 /home/jingxu/workspace/ledgerApp/gcc-arm-none-eabi-10-2020-q4-major-x86_64-linux/gcc-arm-none-eabi-10-2020-q4-major/bin/../lib/gcc/arm-none-eabi/10.2.1/../../../../arm-none-eabi/lib/thumb/v6-m/nofp/libc.a(lib_a-strcmp.o)
 .text          0x0000000000000000        0x0 /home/jingxu/workspace/ledgerApp/gcc-arm-none-eabi-10-2020-q4-major-x86_64-linux/gcc-arm-none-eabi-10-2020-q4-major/bin/../lib/gcc/arm-none-eabi/10.2.1/../../../../arm-none-eabi/lib/thumb/v6-m/nofp/libc.a(lib_a-strcpy.o)
 .data          0x0000000000000000        0x0 /home/jingxu/workspace/ledgerApp/gcc-arm-none-eabi-10-2020-q4-major-x86_64-linux/gcc-arm-none-eabi-10-2020-q4-major/bin/../lib/gcc/arm-none-eabi/10.2.1/../../../../arm-none-eabi/lib/thumb/v6-m/nofp/libc.a(lib_a-strcpy.o)
 .bss           0x0000000000000000        0x0 /home/jingxu/workspace/ledgerApp/gcc-arm-none-eabi-10-2020-q4-major-x86_64-linux/gcc-arm-none-eabi-10-2020-q4-major/bin/../lib/gcc/arm-none-eabi/10.2.1/../../../../arm-none-eabi/lib/thumb/v6-m/nofp/libc.a(lib_a-strcpy.o)
 .text          0x0000000000000000        0x0 /home/jingxu/workspace/ledgerApp/gcc-arm-none-eabi-10-2020-q4-major-x86_64-linux/gcc-arm-none-eabi-10-2020-q4-major/bin/../lib/gcc/arm-none-eabi/10.2.1/../../../../arm-none-eabi/lib/thumb/v6-m/nofp/libc.a(lib_a-strlen-stub.o)
 .data          0x0000000000000000        0x0 /home/jingxu/workspace/ledgerApp/gcc-arm-none-eabi-10-2020-q4-major-x86_64-linux/gcc-arm-none-eabi-10-2020-q4-major/bin/../lib/gcc/arm-none-eabi/10.2.1/../../../../arm-none-eabi/lib/thumb/v6-m/nofp/libc.a(lib_a-strlen-stub.o)
 .bss           0x0000000000000000        0x0 /home/jingxu/workspace/ledgerApp/gcc-arm-none-eabi-10-2020-q4-major-x86_64-linux/gcc-arm-none-eabi-10-2020-q4-major/bin/../lib/gcc/arm-none-eabi/10.2.1/../../../../arm-none-eabi/lib/thumb/v6-m/nofp/libc.a(lib_a-strlen-stub.o)
 .text          0x0000000000000000        0x0 /home/jingxu/workspace/ledgerApp/gcc-arm-none-eabi-10-2020-q4-major-x86_64-linux/gcc-arm-none-eabi-10-2020-q4-major/bin/../lib/gcc/arm-none-eabi/10.2.1/../../../../arm-none-eabi/lib/thumb/v6-m/nofp/libc.a(lib_a-strncmp.o)
 .data          0x0000000000000000        0x0 /home/jingxu/workspace/ledgerApp/gcc-arm-none-eabi-10-2020-q4-major-x86_64-linux/gcc-arm-none-eabi-10-2020-q4-major/bin/../lib/gcc/arm-none-eabi/10.2.1/../../../../arm-none-eabi/lib/thumb/v6-m/nofp/libc.a(lib_a-strncmp.o)
 .bss           0x0000000000000000        0x0 /home/jingxu/workspace/ledgerApp/gcc-arm-none-eabi-10-2020-q4-major-x86_64-linux/gcc-arm-none-eabi-10-2020-q4-major/bin/../lib/gcc/arm-none-eabi/10.2.1/../../../../arm-none-eabi/lib/thumb/v6-m/nofp/libc.a(lib_a-strncmp.o)
 .text          0x0000000000000000        0x0 /home/jingxu/workspace/ledgerApp/gcc-arm-none-eabi-10-2020-q4-major-x86_64-linux/gcc-arm-none-eabi-10-2020-q4-major/bin/../lib/gcc/arm-none-eabi/10.2.1/../../../../arm-none-eabi/lib/thumb/v6-m/nofp/libc.a(lib_a-strncpy.o)
 .data          0x0000000000000000        0x0 /home/jingxu/workspace/ledgerApp/gcc-arm-none-eabi-10-2020-q4-major-x86_64-linux/gcc-arm-none-eabi-10-2020-q4-major/bin/../lib/gcc/arm-none-eabi/10.2.1/../../../../arm-none-eabi/lib/thumb/v6-m/nofp/libc.a(lib_a-strncpy.o)
 .bss           0x0000000000000000        0x0 /home/jingxu/workspace/ledgerApp/gcc-arm-none-eabi-10-2020-q4-major-x86_64-linux/gcc-arm-none-eabi-10-2020-q4-major/bin/../lib/gcc/arm-none-eabi/10.2.1/../../../../arm-none-eabi/lib/thumb/v6-m/nofp/libc.a(lib_a-strncpy.o)
 .text          0x0000000000000000        0x0 /home/jingxu/workspace/ledgerApp/gcc-arm-none-eabi-10-2020-q4-major-x86_64-linux/gcc-arm-none-eabi-10-2020-q4-major/bin/../lib/gcc/arm-none-eabi/10.2.1/../../../../arm-none-eabi/lib/thumb/v6-m/nofp/libc.a(lib_a-strnlen.o)
 .data          0x0000000000000000        0x0 /home/jingxu/workspace/ledgerApp/gcc-arm-none-eabi-10-2020-q4-major-x86_64-linux/gcc-arm-none-eabi-10-2020-q4-major/bin/../lib/gcc/arm-none-eabi/10.2.1/../../../../arm-none-eabi/lib/thumb/v6-m/nofp/libc.a(lib_a-strnlen.o)
 .bss           0x0000000000000000        0x0 /home/jingxu/workspace/ledgerApp/gcc-arm-none-eabi-10-2020-q4-major-x86_64-linux/gcc-arm-none-eabi-10-2020-q4-major/bin/../lib/gcc/arm-none-eabi/10.2.1/../../../../arm-none-eabi/lib/thumb/v6-m/nofp/libc.a(lib_a-strnlen.o)
 .text          0x0000000000000000        0x0 /home/jingxu/workspace/ledgerApp/gcc-arm-none-eabi-10-2020-q4-major-x86_64-linux/gcc-arm-none-eabi-10-2020-q4-major/bin/../lib/gcc/arm-none-eabi/10.2.1/../../../../arm-none-eabi/lib/thumb/v6-m/nofp/libc.a(lib_a-bzero.o)
 .data          0x0000000000000000        0x0 /home/jingxu/workspace/ledgerApp/gcc-arm-none-eabi-10-2020-q4-major-x86_64-linux/gcc-arm-none-eabi-10-2020-q4-major/bin/../lib/gcc/arm-none-eabi/10.2.1/../../../../arm-none-eabi/lib/thumb/v6-m/nofp/libc.a(lib_a-bzero.o)
 .bss           0x0000000000000000        0x0 /home/jingxu/workspace/ledgerApp/gcc-arm-none-eabi-10-2020-q4-major-x86_64-linux/gcc-arm-none-eabi-10-2020-q4-major/bin/../lib/gcc/arm-none-eabi/10.2.1/../../../../arm-none-eabi/lib/thumb/v6-m/nofp/libc.a(lib_a-bzero.o)

Memory Configuration

Name             Origin             Length             Attributes
DISCARD          0x00000000d0000000 0x0000000000100000 xrw
FLASH            0x00000000c0d00000 0x0000000000064000 xr
SRAM             0x0000000020001800 0x0000000000001000 xrw
*default*        0x0000000000000000 0xffffffffffffffff

Linker script and memory map

LOAD obj/base64.o
LOAD obj/checks.o
LOAD obj/cmd_getAppConfiguration.o
LOAD obj/cmd_getEth2PublicKey.o
LOAD obj/cmd_getPublicKey.o
LOAD obj/cmd_provideTokenInfo.o
LOAD obj/cmd_setEth2WithdrawalIndex.o
LOAD obj/cmd_signMessage.o
LOAD obj/cmd_signMessage712.o
LOAD obj/cmd_signTx.o
LOAD obj/cmd_stark_getPublicKey.o
LOAD obj/cmd_stark_provideQuantum.o
LOAD obj/cmd_stark_sign.o
LOAD obj/cmd_stark_unsafe_sign.o
LOAD obj/compound_plugin.o
LOAD obj/cx.o
LOAD obj/cx_compliance_141.o
LOAD obj/erc20_plugin.o
LOAD obj/erc721_plugin.o
LOAD obj/eth2_plugin.o
LOAD obj/ethUstream.o
LOAD obj/ethUtils.o
LOAD obj/eth_plugin_handler.o
LOAD obj/eth_plugin_internal.o
LOAD obj/eth_plugin_ui.o
LOAD obj/glyphs.o
LOAD obj/handle_check_address.o
LOAD obj/handle_get_printable_amount.o
LOAD obj/handle_swap_sign_transaction.o
LOAD obj/logic_getEth2PublicKey.o
LOAD obj/logic_getPublicKey.o
LOAD obj/logic_signTx.o
LOAD obj/logic_stark_getPublicKey.o
LOAD obj/main.o
LOAD obj/os.o
LOAD obj/os_io_seproxyhal.o
LOAD obj/os_io_usb.o
LOAD obj/os_printf.o
LOAD obj/pic.o
LOAD obj/pic_internal.o
LOAD obj/poorstream.o
LOAD obj/stark_crypto.o
LOAD obj/stark_utils.o
LOAD obj/starkware_plugin.o
LOAD obj/syscalls.o
LOAD obj/tcr.o
LOAD obj/tokens.o
LOAD obj/u2f_impl.o
LOAD obj/u2f_io.o
LOAD obj/u2f_transport.o
LOAD obj/ui_common_getEth2PublicKey.o
LOAD obj/ui_common_getPublicKey.o
LOAD obj/ui_common_signMessage.o
LOAD obj/ui_common_signMessage712.o
LOAD obj/ui_common_signTx.o
LOAD obj/ui_common_stark_getPublicKey.o
LOAD obj/ui_common_stark_sign.o
LOAD obj/ui_common_stark_unsafe_sign.o
LOAD obj/ui_flow.o
LOAD obj/ui_flow_erc20_approval.o
LOAD obj/ui_flow_getEth2PublicKey.o
LOAD obj/ui_flow_getPublicKey.o
LOAD obj/ui_flow_signMessage.o
LOAD obj/ui_flow_signMessage712.o
LOAD obj/ui_flow_signTx.o
LOAD obj/ui_flow_stark_getPublicKey.o
LOAD obj/ui_flow_stark_sign.o
LOAD obj/ui_flow_stark_unsafe_sign.o
LOAD obj/uint256.o
LOAD obj/usbd_ccid_cmd.o
LOAD obj/usbd_ccid_core.o
LOAD obj/usbd_ccid_if.o
LOAD obj/usbd_conf.o
LOAD obj/usbd_core.o
LOAD obj/usbd_ctlreq.o
LOAD obj/usbd_hid.o
LOAD obj/usbd_impl.o
LOAD obj/usbd_ioreq.o
LOAD obj/utils.o
LOAD obj/ux_flow_engine.o
LOAD obj/ux_layout_bb.o
LOAD obj/ux_layout_bn.o
LOAD obj/ux_layout_bnn.o
LOAD obj/ux_layout_bnnn.o
LOAD obj/ux_layout_nn.o
LOAD obj/ux_layout_nnbnn.o
LOAD obj/ux_layout_nnn.o
LOAD obj/ux_layout_nnnn.o
LOAD obj/ux_layout_paging.o
LOAD obj/ux_layout_pb.o
LOAD obj/ux_layout_pbb.o
LOAD obj/ux_layout_pn.o
LOAD obj/ux_layout_pnn.o
LOAD obj/ux_layout_utils.o
LOAD obj/ux_legacy.o
LOAD obj/ux_menulist.o
LOAD obj/ux_stack.o
LOAD /home/jingxu/workspace/ledgerApp/gcc-arm-none-eabi-10-2020-q4-major-x86_64-linux/gcc-arm-none-eabi-10-2020-q4-major/bin/../lib/gcc/arm-none-eabi/10.2.1/../../../../arm-none-eabi/lib/thumb/v6-m/nofp/libm.a
LOAD /home/jingxu/workspace/ledgerApp/gcc-arm-none-eabi-10-2020-q4-major-x86_64-linux/gcc-arm-none-eabi-10-2020-q4-major/bin/../lib/gcc/arm-none-eabi/10.2.1/thumb/v6-m/nofp/libgcc.a
LOAD /home/jingxu/workspace/ledgerApp/gcc-arm-none-eabi-10-2020-q4-major-x86_64-linux/gcc-arm-none-eabi-10-2020-q4-major/bin/../lib/gcc/arm-none-eabi/10.2.1/../../../../arm-none-eabi/lib/thumb/v6-m/nofp/libc.a
START GROUP
LOAD /home/jingxu/workspace/ledgerApp/gcc-arm-none-eabi-10-2020-q4-major-x86_64-linux/gcc-arm-none-eabi-10-2020-q4-major/bin/../lib/gcc/arm-none-eabi/10.2.1/thumb/v6-m/nofp/libgcc.a
LOAD /home/jingxu/workspace/ledgerApp/gcc-arm-none-eabi-10-2020-q4-major-x86_64-linux/gcc-arm-none-eabi-10-2020-q4-major/bin/../lib/gcc/arm-none-eabi/10.2.1/../../../../arm-none-eabi/lib/thumb/v6-m/nofp/libg.a
LOAD /home/jingxu/workspace/ledgerApp/gcc-arm-none-eabi-10-2020-q4-major-x86_64-linux/gcc-arm-none-eabi-10-2020-q4-major/bin/../lib/gcc/arm-none-eabi/10.2.1/../../../../arm-none-eabi/lib/thumb/v6-m/nofp/libc.a
END GROUP
                0x0000000000000040                PAGE_SIZE = 0x40
                0x0000000000000200                STACK_SIZE = 0x200
                0x0000000020002800                END_STACK = (ORIGIN (SRAM) + LENGTH (SRAM))

.text           0x00000000c0d00000     0xd800
                0x00000000c0d00000                _text = .
                0x00000000c0d00000                _nvram = .
                [!provide]                        PROVIDE (_setjmp = setjmp)
 *(.boot*)
 .boot          0x00000000c0d00000       0x3a obj/main.o
                0x00000000c0d00000                main
 *(.text*)
 *fill*         0x00000000c0d0003a        0x2 00
 .text.Base64encode
                0x00000000c0d0003c       0xb0 obj/base64.o
                0x00000000c0d0003c                Base64encode
 .text.check_audited_app
                0x00000000c0d000ec      0x1f0 obj/checks.o
                0x00000000c0d000ec                check_audited_app
 .text.ui_audited_elements_button
                0x00000000c0d002dc       0x1c obj/checks.o
 .text.handleGetAppConfiguration
                0x00000000c0d002f8       0x38 obj/cmd_getAppConfiguration.o
                0x00000000c0d002f8                handleGetAppConfiguration
 .text.handleGetPublicKey
                0x00000000c0d00330      0x148 obj/cmd_getPublicKey.o
                0x00000000c0d00330                handleGetPublicKey
 .text.handleProvideErc20TokenInformation
                0x00000000c0d00478      0x124 obj/cmd_provideTokenInfo.o
                0x00000000c0d00478                handleProvideErc20TokenInformation
 .text.handleSignPersonalMessage
                0x00000000c0d0059c      0x260 obj/cmd_signMessage.o
                0x00000000c0d0059c                handleSignPersonalMessage
 .text.handleSignEIP712Message
                0x00000000c0d007fc       0xd8 obj/cmd_signMessage712.o
                0x00000000c0d007fc                handleSignEIP712Message
 .text.handleSign
                0x00000000c0d008d4      0x168 obj/cmd_signTx.o
                0x00000000c0d008d4                handleSign
 .text.handleStarkwareGetPublicKey
                0x00000000c0d00a3c      0x108 obj/cmd_stark_getPublicKey.o
                0x00000000c0d00a3c                handleStarkwareGetPublicKey
 .text.handleStarkwareProvideQuantum
                0x00000000c0d00b44       0xe4 obj/cmd_stark_provideQuantum.o
                0x00000000c0d00b44                handleStarkwareProvideQuantum
 .text.handleStarkwareSignMessage
                0x00000000c0d00c28      0x6b0 obj/cmd_stark_sign.o
                0x00000000c0d00c28                handleStarkwareSignMessage
 .text.handleStarkwareUnsafeSign
                0x00000000c0d012d8      0x130 obj/cmd_stark_unsafe_sign.o
                0x00000000c0d012d8                handleStarkwareUnsafeSign
 .text.get_underlying_asset_decimals
                0x00000000c0d01408       0x48 obj/compound_plugin.o
                0x00000000c0d01408                get_underlying_asset_decimals
 .text.compound_plugin_call
                0x00000000c0d01450      0x2d0 obj/compound_plugin.o
                0x00000000c0d01450                compound_plugin_call
 .text.check_token_binding
                0x00000000c0d01720       0x58 obj/erc20_plugin.o
                0x00000000c0d01720                check_token_binding
 .text.erc20_plugin_available_check
                0x00000000c0d01778       0x28 obj/erc20_plugin.o
                0x00000000c0d01778                erc20_plugin_available_check
 .text.erc20_plugin_call
                0x00000000c0d017a0      0x334 obj/erc20_plugin.o
                0x00000000c0d017a0                erc20_plugin_call
 .text.erc721_plugin_available_check
                0x00000000c0d01ad4       0x28 obj/erc721_plugin.o
                0x00000000c0d01ad4                erc721_plugin_available_check
 .text.erc721_plugin_call
                0x00000000c0d01afc      0x228 obj/erc721_plugin.o
                0x00000000c0d01afc                erc721_plugin_call
 .text.initTx   0x00000000c0d01d24       0x2c obj/ethUstream.o
                0x00000000c0d01d24                initTx
 .text.readTxByte
                0x00000000c0d01d50       0x5c obj/ethUstream.o
                0x00000000c0d01d50                readTxByte
 .text.copyTxData
                0x00000000c0d01dac       0x78 obj/ethUstream.o
                0x00000000c0d01dac                copyTxData
 .text.decodeThetaData
                0x00000000c0d01e24       0x78 obj/ethUstream.o
                0x00000000c0d01e24                decodeThetaData
 .text.processTx
                0x00000000c0d01e9c       0x78 obj/ethUstream.o
                0x00000000c0d01e9c                processTx
 .text.processTxInternal
                0x00000000c0d01f14      0x408 obj/ethUstream.o
 .text.continueTx
                0x00000000c0d0231c       0x56 obj/ethUstream.o
                0x00000000c0d0231c                continueTx
 .text.rlpCanDecode
                0x00000000c0d02372       0x44 obj/ethUtils.o
                0x00000000c0d02372                rlpCanDecode
 .text.rlpDecodeLength
                0x00000000c0d023b6       0xf2 obj/ethUtils.o
                0x00000000c0d023b6                rlpDecodeLength
 .text.getEthAddressStringFromKey
                0x00000000c0d024a8       0x40 obj/ethUtils.o
                0x00000000c0d024a8                getEthAddressStringFromKey
 .text.getEthAddressStringFromBinary
                0x00000000c0d024e8       0xc8 obj/ethUtils.o
                0x00000000c0d024e8                getEthAddressStringFromBinary
 .text.getThetaTxFromBinary
                0x00000000c0d025b0      0x1dc obj/ethUtils.o
                0x00000000c0d025b0                getThetaTxFromBinary
 .text.adjustDecimals
                0x00000000c0d0278c       0xf0 obj/ethUtils.o
                0x00000000c0d0278c                adjustDecimals
 .text.eth_plugin_prepare_init
                0x00000000c0d0287c       0x14 obj/eth_plugin_handler.o
                0x00000000c0d0287c                eth_plugin_prepare_init
 .text.eth_plugin_prepare_provide_parameter
                0x00000000c0d02890       0x14 obj/eth_plugin_handler.o
                0x00000000c0d02890                eth_plugin_prepare_provide_parameter
 .text.eth_plugin_prepare_finalize
                0x00000000c0d028a4        0xa obj/eth_plugin_handler.o
                0x00000000c0d028a4                eth_plugin_prepare_finalize
 .text.eth_plugin_prepare_provide_token
                0x00000000c0d028ae       0x14 obj/eth_plugin_handler.o
                0x00000000c0d028ae                eth_plugin_prepare_provide_token
 .text.eth_plugin_prepare_query_contract_ID
                0x00000000c0d028c2       0x20 obj/eth_plugin_handler.o
                0x00000000c0d028c2                eth_plugin_prepare_query_contract_ID
 .text.eth_plugin_prepare_query_contract_UI
                0x00000000c0d028e2       0x24 obj/eth_plugin_handler.o
                0x00000000c0d028e2                eth_plugin_prepare_query_contract_UI
 *fill*         0x00000000c0d02906        0x2 00
 .text.eth_plugin_perform_init
                0x00000000c0d02908      0x17c obj/eth_plugin_handler.o
                0x00000000c0d02908                eth_plugin_perform_init
 .text.eth_plugin_call
                0x00000000c0d02a84      0x1f0 obj/eth_plugin_handler.o
                0x00000000c0d02a84                eth_plugin_call
 .text.plugin_ui_get_id
                0x00000000c0d02c74       0x60 obj/eth_plugin_ui.o
                0x00000000c0d02c74                plugin_ui_get_id
 .text.plugin_ui_get_item
                0x00000000c0d02cd4       0x50 obj/eth_plugin_ui.o
                0x00000000c0d02cd4                plugin_ui_get_item
 .text.display_next_plugin_item
                0x00000000c0d02d24       0x88 obj/eth_plugin_ui.o
                0x00000000c0d02d24                display_next_plugin_item
 .text.ux_plugin_approval_id_step_init
                0x00000000c0d02dac       0x10 obj/eth_plugin_ui.o
                0x00000000c0d02dac                ux_plugin_approval_id_step_init
 .text.ux_plugin_approval_before_step_init
                0x00000000c0d02dbc        0xa obj/eth_plugin_ui.o
                0x00000000c0d02dbc                ux_plugin_approval_before_step_init
 .text.ux_plugin_approval_after_step_init
                0x00000000c0d02dc6        0xa obj/eth_plugin_ui.o
                0x00000000c0d02dc6                ux_plugin_approval_after_step_init
 .text.ux_plugin_approval_fees_step_init
                0x00000000c0d02dd0       0x1c obj/eth_plugin_ui.o
                0x00000000c0d02dd0                ux_plugin_approval_fees_step_init
 .text.ux_plugin_approval_ok_step_validateinit
                0x00000000c0d02dec        0xa obj/eth_plugin_ui.o
                0x00000000c0d02dec                ux_plugin_approval_ok_step_validateinit
 .text.ux_plugin_approval_cancel_step_validateinit
                0x00000000c0d02df6        0xa obj/eth_plugin_ui.o
                0x00000000c0d02df6                ux_plugin_approval_cancel_step_validateinit
 .text.plugin_ui_start
                0x00000000c0d02e00       0x24 obj/eth_plugin_ui.o
                0x00000000c0d02e00                plugin_ui_start
 .text.handle_check_address
                0x00000000c0d02e24      0x13c obj/handle_check_address.o
                0x00000000c0d02e24                handle_check_address
 .text.handle_get_printable_amount
                0x00000000c0d02f60       0x94 obj/handle_get_printable_amount.o
                0x00000000c0d02f60                handle_get_printable_amount
 .text.copy_transaction_parameters
                0x00000000c0d02ff4       0xac obj/handle_swap_sign_transaction.o
                0x00000000c0d02ff4                copy_transaction_parameters
 .text.handle_swap_sign_transaction
                0x00000000c0d030a0       0x78 obj/handle_swap_sign_transaction.o
                0x00000000c0d030a0                handle_swap_sign_transaction
 .text.set_result_get_publicKey
                0x00000000c0d03118       0x4c obj/logic_getPublicKey.o
                0x00000000c0d03118                set_result_get_publicKey
 .text.splitBinaryParameterPart
                0x00000000c0d03164       0x30 obj/logic_signTx.o
                0x00000000c0d03164                splitBinaryParameterPart
 .text.customProcessor
                0x00000000c0d03194      0x270 obj/logic_signTx.o
                0x00000000c0d03194                customProcessor
 .text.compareOrCopy
                0x00000000c0d03404       0x78 obj/logic_signTx.o
                0x00000000c0d03404                compareOrCopy
 .text.reportFinalizeError
                0x00000000c0d0347c       0x1e obj/logic_signTx.o
                0x00000000c0d0347c                reportFinalizeError
 *fill*         0x00000000c0d0349a        0x2 00
 .text.computeFees
                0x00000000c0d0349c       0x68 obj/logic_signTx.o
                0x00000000c0d0349c                computeFees
 .text.finalizeParsing
                0x00000000c0d03504      0x32c obj/logic_signTx.o
                0x00000000c0d03504                finalizeParsing
 .text.set_result_get_stark_publicKey
                0x00000000c0d03830       0x1c obj/logic_stark_getPublicKey.o
                0x00000000c0d03830                set_result_get_stark_publicKey
 .text.reset_app_context
                0x00000000c0d0384c       0x44 obj/main.o
                0x00000000c0d0384c                reset_app_context
 .text.ui_idle  0x00000000c0d03890       0x24 obj/main.o
                0x00000000c0d03890                ui_idle
 .text.io_seproxyhal_send_status
                0x00000000c0d038b4       0x18 obj/main.o
                0x00000000c0d038b4                io_seproxyhal_send_status
 .text.format_signature_out
                0x00000000c0d038cc       0x68 obj/main.o
                0x00000000c0d038cc                format_signature_out
 .text.io_exchange_al
                0x00000000c0d03934       0x44 obj/main.o
                0x00000000c0d03934                io_exchange_al
 .text.getKnownToken
                0x00000000c0d03978       0x4c obj/main.o
                0x00000000c0d03978                getKnownToken
 .text.handleApdu
                0x00000000c0d039c4      0x234 obj/main.o
                0x00000000c0d039c4                handleApdu
 .text.app_main
                0x00000000c0d03bf8      0x138 obj/main.o
                0x00000000c0d03bf8                app_main
 .text.io_seproxyhal_display
                0x00000000c0d03d30        0x8 obj/main.o
                0x00000000c0d03d30                io_seproxyhal_display
 .text.io_event
                0x00000000c0d03d38      0x3b4 obj/main.o
                0x00000000c0d03d38                io_event
 .text.app_exit
                0x00000000c0d040ec       0x40 obj/main.o
                0x00000000c0d040ec                app_exit
 .text.coin_main
                0x00000000c0d0412c      0x110 obj/main.o
                0x00000000c0d0412c                coin_main
 .text.library_main
                0x00000000c0d0423c       0xd4 obj/main.o
                0x00000000c0d0423c                library_main
 .text.os_boot  0x00000000c0d04310        0xa obj/os.o
                0x00000000c0d04310                os_boot
 .text.os_memmove
                0x00000000c0d0431a       0x2c obj/os.o
                0x00000000c0d0431a                os_memmove
 .text.os_memset
                0x00000000c0d04346       0x12 obj/os.o
                0x00000000c0d04346                os_memset
 .text.os_memcmp
                0x00000000c0d04358       0x2a obj/os.o
                0x00000000c0d04358                os_memcmp
 *fill*         0x00000000c0d04382        0x2 00
 .text.os_longjmp
                0x00000000c0d04384       0x1c obj/os.o
                0x00000000c0d04384                os_longjmp
 .text.os_secure_memcmp
                0x00000000c0d043a0       0x3c obj/os.o
                0x00000000c0d043a0                os_secure_memcmp
 .text.os_parse_bertlv
                0x00000000c0d043dc      0x1d8 obj/os.o
                0x00000000c0d043dc                os_parse_bertlv
 .text.io_seproxyhal_general_status
                0x00000000c0d045b4       0x2c obj/os_io_seproxyhal.o
                0x00000000c0d045b4                io_seproxyhal_general_status
 .text.io_seproxyhal_handle_usb_event
                0x00000000c0d045e0       0x78 obj/os_io_seproxyhal.o
                0x00000000c0d045e0                io_seproxyhal_handle_usb_event
 .text.io_seproxyhal_get_ep_rx_size
                0x00000000c0d04658       0x18 obj/os_io_seproxyhal.o
                0x00000000c0d04658                io_seproxyhal_get_ep_rx_size
 .text.io_seproxyhal_handle_usb_ep_xfer_event
                0x00000000c0d04670       0x64 obj/os_io_seproxyhal.o
                0x00000000c0d04670                io_seproxyhal_handle_usb_ep_xfer_event
 .text.io_usb_send_ep
                0x00000000c0d046d4       0x50 obj/os_io_seproxyhal.o
                0x00000000c0d046d4                io_usb_send_ep
 .text.io_usb_send_apdu_data
                0x00000000c0d04724       0x10 obj/os_io_seproxyhal.o
                0x00000000c0d04724                io_usb_send_apdu_data
 .text.io_usb_send_apdu_data_ep0x83
                0x00000000c0d04734       0x10 obj/os_io_seproxyhal.o
                0x00000000c0d04734                io_usb_send_apdu_data_ep0x83
 .text.io_seproxyhal_handle_capdu_event
                0x00000000c0d04744       0x3c obj/os_io_seproxyhal.o
                0x00000000c0d04744                io_seproxyhal_handle_capdu_event
 .text.io_seproxyhal_handle_event
                0x00000000c0d04780       0x88 obj/os_io_seproxyhal.o
                0x00000000c0d04780                io_seproxyhal_handle_event
 .text.io_seproxyhal_init
                0x00000000c0d04808       0x38 obj/os_io_seproxyhal.o
                0x00000000c0d04808                io_seproxyhal_init
 .text.io_seproxyhal_init_ux
                0x00000000c0d04840        0x2 obj/os_io_seproxyhal.o
                0x00000000c0d04840                io_seproxyhal_init_ux
 *fill*         0x00000000c0d04842        0x2 00
 .text.io_seproxyhal_init_button
                0x00000000c0d04844       0x10 obj/os_io_seproxyhal.o
                0x00000000c0d04844                io_seproxyhal_init_button
 .text.io_seproxyhal_display_icon
                0x00000000c0d04854       0xa0 obj/os_io_seproxyhal.o
                0x00000000c0d04854                io_seproxyhal_display_icon
 .text.io_seproxyhal_display_default
                0x00000000c0d048f4       0x88 obj/os_io_seproxyhal.o
                0x00000000c0d048f4                io_seproxyhal_display_default
 .text.io_seproxyhal_button_push
                0x00000000c0d0497c       0x60 obj/os_io_seproxyhal.o
                0x00000000c0d0497c                io_seproxyhal_button_push
 .text.os_io_seproxyhal_get_app_name_and_version
                0x00000000c0d049dc       0x48 obj/os_io_seproxyhal.o
                0x00000000c0d049dc                os_io_seproxyhal_get_app_name_and_version
 .text.io_exchange
                0x00000000c0d04a24      0x2c8 obj/os_io_seproxyhal.o
                0x00000000c0d04a24                io_exchange
 .text.os_io_seph_recv_and_process
                0x00000000c0d04cec       0x4c obj/os_io_seproxyhal.o
                0x00000000c0d04cec                os_io_seph_recv_and_process
 .text.mcu_usb_printc
                0x00000000c0d04d38       0x2a obj/os_io_seproxyhal.o
                0x00000000c0d04d38                mcu_usb_printc
 *fill*         0x00000000c0d04d62        0x2 00
 .text.io_seproxyhal_io_heartbeat
                0x00000000c0d04d64       0x2c obj/os_io_seproxyhal.o
                0x00000000c0d04d64                io_seproxyhal_io_heartbeat
 .text.io_usb_hid_receive
                0x00000000c0d04d90      0x140 obj/os_io_usb.o
                0x00000000c0d04d90                io_usb_hid_receive
 .text.io_usb_hid_init
                0x00000000c0d04ed0       0x1c obj/os_io_usb.o
                0x00000000c0d04ed0                io_usb_hid_init
 .text.io_usb_hid_sent
                0x00000000c0d04eec       0xc8 obj/os_io_usb.o
                0x00000000c0d04eec                io_usb_hid_sent
 .text.io_usb_hid_send
                0x00000000c0d04fb4       0x34 obj/os_io_usb.o
                0x00000000c0d04fb4                io_usb_hid_send
 .text.mcu_usb_prints
                0x00000000c0d04fe8       0x54 obj/os_printf.o
                0x00000000c0d04fe8                mcu_usb_prints
 .text.mcu_usb_printf
                0x00000000c0d0503c      0x354 obj/os_printf.o
                0x00000000c0d0503c                screen_printf
                0x00000000c0d0503c                mcu_usb_printf
 .text.snprintf
                0x00000000c0d05390      0x3a8 obj/os_printf.o
                0x00000000c0d05390                snprintf
 .text.pic      0x00000000c0d05738       0x1c obj/pic.o
                0x00000000c0d05738                pic
 .text.pic_internal
                0x00000000c0d05754       0x10 obj/pic_internal.o
                0x00000000c0d05754                pic_internal
 .text.poorstream_init
                0x00000000c0d05764       0x12 obj/poorstream.o
                0x00000000c0d05764                poorstream_init
 .text.poorstream_flush
                0x00000000c0d05776       0x32 obj/poorstream.o
                0x00000000c0d05776                poorstream_flush
 .text.poorstream_write_bits
                0x00000000c0d057a8       0xaa obj/poorstream.o
                0x00000000c0d057a8                poorstream_write_bits
 *fill*         0x00000000c0d05852        0x2 00
 .text.starkDerivePrivateKey
                0x00000000c0d05854       0xcc obj/stark_crypto.o
                0x00000000c0d05854                starkDerivePrivateKey
 .text.stark_get_amount_string
                0x00000000c0d05920       0xf8 obj/stark_crypto.o
                0x00000000c0d05920                stark_get_amount_string
 .text.accum_ec_mul
                0x00000000c0d05a18       0x68 obj/stark_utils.o
                0x00000000c0d05a18                accum_ec_mul
 .text.pedersen
                0x00000000c0d05a80       0x60 obj/stark_utils.o
                0x00000000c0d05a80                pedersen
 .text.stark_sign
                0x00000000c0d05ae0      0x114 obj/stark_utils.o
                0x00000000c0d05ae0                stark_sign
 .text.compute_token_id
                0x00000000c0d05bf4      0x20c obj/stark_utils.o
                0x00000000c0d05bf4                compute_token_id
 .text.starkware_verify_asset_id
                0x00000000c0d05e00       0xbc obj/starkware_plugin.o
                0x00000000c0d05e00                starkware_verify_asset_id
 .text.starkware_verify_nft_token_id
                0x00000000c0d05ebc       0x78 obj/starkware_plugin.o
                0x00000000c0d05ebc                starkware_verify_nft_token_id
 .text.starkware_print_stark_key
                0x00000000c0d05f34       0x20 obj/starkware_plugin.o
                0x00000000c0d05f34                starkware_print_stark_key
 .text.starkware_print_eth_address
                0x00000000c0d05f54       0x28 obj/starkware_plugin.o
                0x00000000c0d05f54                starkware_print_eth_address
 .text.starkware_print_amount
                0x00000000c0d05f7c       0xcc obj/starkware_plugin.o
                0x00000000c0d05f7c                starkware_print_amount
 .text.starkware_print_asset_contract
                0x00000000c0d06048       0x64 obj/starkware_plugin.o
                0x00000000c0d06048                starkware_print_asset_contract
 .text.starkware_get_source_address
                0x00000000c0d060ac       0x88 obj/starkware_plugin.o
                0x00000000c0d060ac                starkware_get_source_address
 .text.starkware_plugin_call
                0x00000000c0d06134      0x69c obj/starkware_plugin.o
                0x00000000c0d06134                starkware_plugin_call
 .text.SVC_Call
                0x00000000c0d067d0        0x4 obj/syscalls.o
                0x00000000c0d067d0                SVC_Call
 .text.check_api_level
                0x00000000c0d067d4       0x18 obj/syscalls.o
                0x00000000c0d067d4                check_api_level
 .text.halt     0x00000000c0d067ec       0x14 obj/syscalls.o
                0x00000000c0d067ec                halt
 .text.nvm_write
                0x00000000c0d06800       0x1c obj/syscalls.o
                0x00000000c0d06800                nvm_write
 .text.cx_rng   0x00000000c0d0681c       0x1c obj/syscalls.o
                0x00000000c0d0681c                cx_rng
 .text.cx_hash  0x00000000c0d06838       0x28 obj/syscalls.o
                0x00000000c0d06838                cx_hash
 .text.cx_sha256_init
                0x00000000c0d06860       0x18 obj/syscalls.o
                0x00000000c0d06860                cx_sha256_init
 .text.cx_hash_sha256
                0x00000000c0d06878       0x20 obj/syscalls.o
                0x00000000c0d06878                cx_hash_sha256
 .text.cx_keccak_init
                0x00000000c0d06898       0x1c obj/syscalls.o
                0x00000000c0d06898                cx_keccak_init
 .text.cx_ecfp_add_point
                0x00000000c0d068b4       0x24 obj/syscalls.o
                0x00000000c0d068b4                cx_ecfp_add_point
 .text.cx_ecfp_scalar_mult
                0x00000000c0d068d8       0x24 obj/syscalls.o
                0x00000000c0d068d8                cx_ecfp_scalar_mult
 .text.cx_ecfp_init_public_key
                0x00000000c0d068fc       0x20 obj/syscalls.o
                0x00000000c0d068fc                cx_ecfp_init_public_key
 .text.cx_ecfp_init_private_key
                0x00000000c0d0691c       0x20 obj/syscalls.o
                0x00000000c0d0691c                cx_ecfp_init_private_key
 .text.cx_ecfp_generate_pair
                0x00000000c0d0693c       0x20 obj/syscalls.o
                0x00000000c0d0693c                cx_ecfp_generate_pair
 .text.cx_ecdsa_sign
                0x00000000c0d0695c       0x30 obj/syscalls.o
                0x00000000c0d0695c                cx_ecdsa_sign
 .text.cx_ecdsa_verify
                0x00000000c0d0698c       0x2c obj/syscalls.o
                0x00000000c0d0698c                cx_ecdsa_verify
 .text.cx_crc16_update
                0x00000000c0d069b8       0x20 obj/syscalls.o
                0x00000000c0d069b8                cx_crc16_update
 .text.cx_math_cmp
                0x00000000c0d069d8       0x1c obj/syscalls.o
                0x00000000c0d069d8                cx_math_cmp
 .text.cx_math_mult
                0x00000000c0d069f4       0x1c obj/syscalls.o
                0x00000000c0d069f4                cx_math_mult
 .text.cx_math_modm
                0x00000000c0d06a10       0x1c obj/syscalls.o
                0x00000000c0d06a10                cx_math_modm
 .text.os_perso_isonboarded
                0x00000000c0d06a2c       0x18 obj/syscalls.o
                0x00000000c0d06a2c                os_perso_isonboarded
 .text.os_perso_derive_node_bip32
                0x00000000c0d06a44       0x20 obj/syscalls.o
                0x00000000c0d06a44                os_perso_derive_node_bip32
 .text.os_perso_seed_cookie
                0x00000000c0d06a64       0x1c obj/syscalls.o
                0x00000000c0d06a64                os_perso_seed_cookie
 .text.os_global_pin_is_validated
                0x00000000c0d06a80       0x18 obj/syscalls.o
                0x00000000c0d06a80                os_global_pin_is_validated
 .text.os_ux    0x00000000c0d06a98       0x18 obj/syscalls.o
                0x00000000c0d06a98                os_ux
 .text.os_lib_call
                0x00000000c0d06ab0       0x18 obj/syscalls.o
                0x00000000c0d06ab0                os_lib_call
 .text.os_lib_end
                0x00000000c0d06ac8       0x14 obj/syscalls.o
                0x00000000c0d06ac8                os_lib_end
 .text.os_flags
                0x00000000c0d06adc       0x18 obj/syscalls.o
                0x00000000c0d06adc                os_flags
 .text.os_registry_get_current_app_tag
                0x00000000c0d06af4       0x1c obj/syscalls.o
                0x00000000c0d06af4                os_registry_get_current_app_tag
 .text.os_sched_exit
                0x00000000c0d06b10       0x18 obj/syscalls.o
                0x00000000c0d06b10                os_sched_exit
 .text.io_seph_send
                0x00000000c0d06b28       0x18 obj/syscalls.o
                0x00000000c0d06b28                io_seph_send
 .text.io_seph_is_status_sent
                0x00000000c0d06b40       0x18 obj/syscalls.o
                0x00000000c0d06b40                io_seph_is_status_sent
 .text.io_seph_recv
                0x00000000c0d06b58       0x20 obj/syscalls.o
                0x00000000c0d06b58                io_seph_recv
 .text.try_context_get
                0x00000000c0d06b78       0x18 obj/syscalls.o
                0x00000000c0d06b78                try_context_get
 .text.try_context_set
                0x00000000c0d06b90       0x18 obj/syscalls.o
                0x00000000c0d06b90                try_context_set
 .text.os_sched_last_status
                0x00000000c0d06ba8       0x1c obj/syscalls.o
                0x00000000c0d06ba8                os_sched_last_status
 .text.u2f_apdu_sign
                0x00000000c0d06bc4      0x108 obj/u2f_impl.o
                0x00000000c0d06bc4                u2f_apdu_sign
 .text.u2f_handle_cmd_init
                0x00000000c0d06ccc       0x98 obj/u2f_impl.o
                0x00000000c0d06ccc                u2f_handle_cmd_init
 .text.u2f_handle_cmd_msg
                0x00000000c0d06d64       0xbc obj/u2f_impl.o
                0x00000000c0d06d64                u2f_handle_cmd_msg
 .text.u2f_message_complete
                0x00000000c0d06e20       0x3c obj/u2f_impl.o
                0x00000000c0d06e20                u2f_message_complete
 .text.u2f_io_send
                0x00000000c0d06e5c       0x44 obj/u2f_io.o
                0x00000000c0d06e5c                u2f_io_send
 .text.u2f_transport_init
                0x00000000c0d06ea0       0x14 obj/u2f_transport.o
                0x00000000c0d06ea0                u2f_transport_init
 .text.u2f_transport_sent
                0x00000000c0d06eb4      0x114 obj/u2f_transport.o
                0x00000000c0d06eb4                u2f_transport_sent
 .text.u2f_message_repliable
                0x00000000c0d06fc8       0x26 obj/u2f_transport.o
                0x00000000c0d06fc8                u2f_message_repliable
 *fill*         0x00000000c0d06fee        0x2 00
 .text.u2f_transport_send_usb_user_presence_required
                0x00000000c0d06ff0       0x38 obj/u2f_transport.o
                0x00000000c0d06ff0                u2f_transport_send_usb_user_presence_required
 .text.u2f_transport_send_wink
                0x00000000c0d07028       0x30 obj/u2f_transport.o
                0x00000000c0d07028                u2f_transport_send_wink
 .text.u2f_transport_receive_fakeChannel
                0x00000000c0d07058       0xf4 obj/u2f_transport.o
                0x00000000c0d07058                u2f_transport_receive_fakeChannel
 .text.u2f_transport_received
                0x00000000c0d0714c      0x31c obj/u2f_transport.o
                0x00000000c0d0714c                u2f_transport_received
 .text.u2f_is_channel_broadcast
                0x00000000c0d07468       0x18 obj/u2f_transport.o
                0x00000000c0d07468                u2f_is_channel_broadcast
 .text.u2f_message_set_autoreply_wait_user_presence
                0x00000000c0d07480       0x26 obj/u2f_transport.o
                0x00000000c0d07480                u2f_message_set_autoreply_wait_user_presence
 *fill*         0x00000000c0d074a6        0x2 00
 .text.u2f_message_reply
                0x00000000c0d074a8       0x74 obj/u2f_transport.o
                0x00000000c0d074a8                u2f_message_reply
 .text.io_seproxyhal_touch_address_ok
                0x00000000c0d0751c       0x30 obj/ui_common_getPublicKey.o
                0x00000000c0d0751c                io_seproxyhal_touch_address_ok
 .text.io_seproxyhal_touch_address_cancel
                0x00000000c0d0754c       0x24 obj/ui_common_getPublicKey.o
                0x00000000c0d0754c                io_seproxyhal_touch_address_cancel
 .text.io_seproxyhal_touch_signMessage_ok
                0x00000000c0d07570       0xbc obj/ui_common_signMessage.o
                0x00000000c0d07570                io_seproxyhal_touch_signMessage_ok
 .text.io_seproxyhal_touch_signMessage_cancel
                0x00000000c0d0762c       0x24 obj/ui_common_signMessage.o
                0x00000000c0d0762c                io_seproxyhal_touch_signMessage_cancel
 .text.io_seproxyhal_touch_signMessage712_v0_ok
                0x00000000c0d07650      0x120 obj/ui_common_signMessage712.o
                0x00000000c0d07650                io_seproxyhal_touch_signMessage712_v0_ok
 .text.io_seproxyhal_touch_signMessage712_v0_cancel
                0x00000000c0d07770       0x24 obj/ui_common_signMessage712.o
                0x00000000c0d07770                io_seproxyhal_touch_signMessage712_v0_cancel
 .text.io_seproxyhal_touch_tx_ok
                0x00000000c0d07794       0xe8 obj/ui_common_signTx.o
                0x00000000c0d07794                io_seproxyhal_touch_tx_ok
 .text.io_seproxyhal_touch_tx_cancel
                0x00000000c0d0787c       0x24 obj/ui_common_signTx.o
                0x00000000c0d0787c                io_seproxyhal_touch_tx_cancel
 .text.io_seproxyhal_touch_data_ok
                0x00000000c0d078a0       0x50 obj/ui_common_signTx.o
                0x00000000c0d078a0                io_seproxyhal_touch_data_ok
 .text.io_seproxyhal_touch_data_cancel
                0x00000000c0d078f0       0x18 obj/ui_common_signTx.o
                0x00000000c0d078f0                io_seproxyhal_touch_data_cancel
 .text.io_seproxyhal_touch_stark_pubkey_ok
                0x00000000c0d07908       0x30 obj/ui_common_stark_getPublicKey.o
                0x00000000c0d07908                io_seproxyhal_touch_stark_pubkey_ok
 .text.io_seproxyhal_touch_stark_ok
                0x00000000c0d07938       0x78 obj/ui_common_stark_sign.o
                0x00000000c0d07938                io_seproxyhal_touch_stark_ok
 .text.io_seproxyhal_touch_stark_unsafe_sign_ok
                0x00000000c0d079b0       0x84 obj/ui_common_stark_unsafe_sign.o
                0x00000000c0d079b0                io_seproxyhal_touch_stark_unsafe_sign_ok
 .text.ux_idle_flow_3_step_validateinit
                0x00000000c0d07a34        0x8 obj/ui_flow.o
                0x00000000c0d07a34                ux_idle_flow_3_step_validateinit
 .text.display_settings
                0x00000000c0d07a3c       0x6c obj/ui_flow.o
                0x00000000c0d07a3c                display_settings
 .text.ux_idle_flow_4_step_validateinit
                0x00000000c0d07aa8        0xa obj/ui_flow.o
                0x00000000c0d07aa8                ux_idle_flow_4_step_validateinit
 .text.ux_settings_flow_1_step_validateinit
                0x00000000c0d07ab2        0x8 obj/ui_flow.o
                0x00000000c0d07ab2                ux_settings_flow_1_step_validateinit
 *fill*         0x00000000c0d07aba        0x2 00
 .text.switch_settings_contract_data
                0x00000000c0d07abc       0x34 obj/ui_flow.o
                0x00000000c0d07abc                switch_settings_contract_data
 .text.ux_settings_flow_2_step_validateinit
                0x00000000c0d07af0        0x8 obj/ui_flow.o
                0x00000000c0d07af0                ux_settings_flow_2_step_validateinit
 .text.switch_settings_display_data
                0x00000000c0d07af8       0x34 obj/ui_flow.o
                0x00000000c0d07af8                switch_settings_display_data
 .text.ux_settings_flow_3_step_validateinit
                0x00000000c0d07b2c        0x8 obj/ui_flow.o
                0x00000000c0d07b2c                ux_settings_flow_3_step_validateinit
 .text.ux_display_public_flow_3_step_validateinit
                0x00000000c0d07b34        0xa obj/ui_flow_getPublicKey.o
                0x00000000c0d07b34                ux_display_public_flow_3_step_validateinit
 .text.ux_display_public_flow_4_step_validateinit
                0x00000000c0d07b3e        0xa obj/ui_flow_getPublicKey.o
                0x00000000c0d07b3e                ux_display_public_flow_4_step_validateinit
 .text.ux_sign_flow_3_step_validateinit
                0x00000000c0d07b48        0xa obj/ui_flow_signMessage.o
                0x00000000c0d07b48                ux_sign_flow_3_step_validateinit
 .text.ux_sign_flow_4_step_validateinit
                0x00000000c0d07b52        0xa obj/ui_flow_signMessage.o
                0x00000000c0d07b52                ux_sign_flow_4_step_validateinit
 .text.ux_sign_712_v0_flow_2_step_init
                0x00000000c0d07b5c       0x34 obj/ui_flow_signMessage712.o
                0x00000000c0d07b5c                ux_sign_712_v0_flow_2_step_init
 .text.ux_sign_712_v0_flow_3_step_init
                0x00000000c0d07b90       0x34 obj/ui_flow_signMessage712.o
                0x00000000c0d07b90                ux_sign_712_v0_flow_3_step_init
 .text.ux_sign_712_v0_flow_4_step_validateinit
                0x00000000c0d07bc4        0xa obj/ui_flow_signMessage712.o
                0x00000000c0d07bc4                ux_sign_712_v0_flow_4_step_validateinit
 .text.ux_sign_712_v0_flow_5_step_validateinit
                0x00000000c0d07bce        0xa obj/ui_flow_signMessage712.o
                0x00000000c0d07bce                ux_sign_712_v0_flow_5_step_validateinit
 .text.ux_confirm_selector_flow_3_step_validateinit
                0x00000000c0d07bd8        0xa obj/ui_flow_signTx.o
                0x00000000c0d07bd8                ux_confirm_selector_flow_3_step_validateinit
 .text.ux_confirm_selector_flow_4_step_validateinit
                0x00000000c0d07be2        0xa obj/ui_flow_signTx.o
                0x00000000c0d07be2                ux_confirm_selector_flow_4_step_validateinit
 .text.ux_confirm_parameter_flow_3_step_validateinit
                0x00000000c0d07bec        0xa obj/ui_flow_signTx.o
                0x00000000c0d07bec                ux_confirm_parameter_flow_3_step_validateinit
 .text.ux_confirm_parameter_flow_4_step_validateinit
                0x00000000c0d07bf6        0xa obj/ui_flow_signTx.o
                0x00000000c0d07bf6                ux_confirm_parameter_flow_4_step_validateinit
 .text.ux_approval_tx_5_step_validateinit
                0x00000000c0d07c00        0xa obj/ui_flow_signTx.o
                0x00000000c0d07c00                ux_approval_tx_5_step_validateinit
 .text.ux_approval_tx_6_step_validateinit
                0x00000000c0d07c0a        0xa obj/ui_flow_signTx.o
                0x00000000c0d07c0a                ux_approval_tx_6_step_validateinit
 .text.ux_display_stark_public_flow_3_step_validateinit
                0x00000000c0d07c14        0xa obj/ui_flow_stark_getPublicKey.o
                0x00000000c0d07c14                ux_display_stark_public_flow_3_step_validateinit
 .text.ux_display_stark_public_flow_4_step_validateinit
                0x00000000c0d07c1e        0xa obj/ui_flow_stark_getPublicKey.o
                0x00000000c0d07c1e                ux_display_stark_public_flow_4_step_validateinit
 .text.ux_stark_limit_order_7_step_validateinit
                0x00000000c0d07c28        0xa obj/ui_flow_stark_sign.o
                0x00000000c0d07c28                ux_stark_limit_order_7_step_validateinit
 .text.ux_stark_limit_order_8_step_validateinit
                0x00000000c0d07c32        0xa obj/ui_flow_stark_sign.o
                0x00000000c0d07c32                ux_stark_limit_order_8_step_validateinit
 .text.ux_stark_transfer_6_step_validateinit
                0x00000000c0d07c3c        0xa obj/ui_flow_stark_sign.o
                0x00000000c0d07c3c                ux_stark_transfer_6_step_validateinit
 .text.ux_stark_transfer_7_step_validateinit
                0x00000000c0d07c46        0xa obj/ui_flow_stark_sign.o
                0x00000000c0d07c46                ux_stark_transfer_7_step_validateinit
 .text.ux_stark_conditional_transfer_4_step_init
                0x00000000c0d07c50       0x34 obj/ui_flow_stark_sign.o
                0x00000000c0d07c50                ux_stark_conditional_transfer_4_step_init
 .text.ux_stark_conditional_transfer_8_step_init
                0x00000000c0d07c84       0x3c obj/ui_flow_stark_sign.o
                0x00000000c0d07c84                ux_stark_conditional_transfer_8_step_init
 .text.ux_stark_conditional_transfer_9_step_init
                0x00000000c0d07cc0       0x34 obj/ui_flow_stark_sign.o
                0x00000000c0d07cc0                ux_stark_conditional_transfer_9_step_init
 .text.ux_stark_unsafe_sign_2_step_init
                0x00000000c0d07cf4       0x30 obj/ui_flow_stark_unsafe_sign.o
                0x00000000c0d07cf4                ux_stark_unsafe_sign_2_step_init
 .text.ux_stark_unsafe_sign_3_step_init
                0x00000000c0d07d24       0x34 obj/ui_flow_stark_unsafe_sign.o
                0x00000000c0d07d24                ux_stark_unsafe_sign_3_step_init
 .text.ux_stark_unsafe_sign_4_step_validateinit
                0x00000000c0d07d58        0xa obj/ui_flow_stark_unsafe_sign.o
                0x00000000c0d07d58                ux_stark_unsafe_sign_4_step_validateinit
 .text.ux_stark_unsafe_sign_5_step_validateinit
                0x00000000c0d07d62        0xa obj/ui_flow_stark_unsafe_sign.o
                0x00000000c0d07d62                ux_stark_unsafe_sign_5_step_validateinit
 .text.readUint64BE
                0x00000000c0d07d6c       0x2c obj/uint256.o
 .text.readu256BE
                0x00000000c0d07d98       0x34 obj/uint256.o
                0x00000000c0d07d98                readu256BE
 .text.shiftl128
                0x00000000c0d07dcc       0x90 obj/uint256.o
                0x00000000c0d07dcc                shiftl128
 .text.shiftl256
                0x00000000c0d07e5c      0x10e obj/uint256.o
                0x00000000c0d07e5c                shiftl256
 .text.shiftr128
                0x00000000c0d07f6a       0x96 obj/uint256.o
                0x00000000c0d07f6a                shiftr128
 .text.shiftr256
                0x00000000c0d08000      0x100 obj/uint256.o
                0x00000000c0d08000                shiftr256
 .text.bits256  0x00000000c0d08100       0x84 obj/uint256.o
                0x00000000c0d08100                bits256
 .text.gt256    0x00000000c0d08184       0x60 obj/uint256.o
                0x00000000c0d08184                gt256
 .text.gte256   0x00000000c0d081e4       0x5e obj/uint256.o
                0x00000000c0d081e4                gte256
 .text.minus256
                0x00000000c0d08242      0x178 obj/uint256.o
                0x00000000c0d08242                minus256
 .text.write_u64_be
                0x00000000c0d083ba       0x1e obj/uint256.o
                0x00000000c0d083ba                write_u64_be
 .text.mul256   0x00000000c0d083d8       0xb4 obj/uint256.o
                0x00000000c0d083d8                mul256
 .text.divmod256
                0x00000000c0d0848c      0x27a obj/uint256.o
                0x00000000c0d0848c                divmod256
 *fill*         0x00000000c0d08706        0x2 00
 .text.tostring256
                0x00000000c0d08708       0xdc obj/uint256.o
                0x00000000c0d08708                tostring256
 .text.USBD_LL_Init
                0x00000000c0d087e4       0x14 obj/usbd_conf.o
                0x00000000c0d087e4                USBD_LL_Init
 .text.USBD_LL_DeInit
                0x00000000c0d087f8       0x24 obj/usbd_conf.o
                0x00000000c0d087f8                USBD_LL_DeInit
 .text.USBD_LL_Start
                0x00000000c0d0881c       0x38 obj/usbd_conf.o
                0x00000000c0d0881c                USBD_LL_Start
 .text.USBD_LL_Stop
                0x00000000c0d08854       0x22 obj/usbd_conf.o
                0x00000000c0d08854                USBD_LL_Stop
 *fill*         0x00000000c0d08876        0x2 00
 .text.USBD_LL_OpenEP
                0x00000000c0d08878       0x60 obj/usbd_conf.o
                0x00000000c0d08878                USBD_LL_OpenEP
 .text.USBD_LL_CloseEP
                0x00000000c0d088d8       0x2c obj/usbd_conf.o
                0x00000000c0d088d8                USBD_LL_CloseEP
 .text.USBD_LL_StallEP
                0x00000000c0d08904       0x48 obj/usbd_conf.o
                0x00000000c0d08904                USBD_LL_StallEP
 .text.USBD_LL_ClearStallEP
                0x00000000c0d0894c       0x48 obj/usbd_conf.o
                0x00000000c0d0894c                USBD_LL_ClearStallEP
 .text.USBD_LL_IsStallEP
                0x00000000c0d08994       0x20 obj/usbd_conf.o
                0x00000000c0d08994                USBD_LL_IsStallEP
 .text.USBD_LL_SetUSBAddress
                0x00000000c0d089b4       0x24 obj/usbd_conf.o
                0x00000000c0d089b4                USBD_LL_SetUSBAddress
 .text.USBD_LL_Transmit
                0x00000000c0d089d8       0x32 obj/usbd_conf.o
                0x00000000c0d089d8                USBD_LL_Transmit
 .text.USBD_LL_PrepareReceive
                0x00000000c0d08a0a       0x26 obj/usbd_conf.o
                0x00000000c0d08a0a                USBD_LL_PrepareReceive
 .text.USBD_Init
                0x00000000c0d08a30       0x30 obj/usbd_core.o
                0x00000000c0d08a30                USBD_Init
 .text.USBD_DeInit
                0x00000000c0d08a60       0x36 obj/usbd_core.o
                0x00000000c0d08a60                USBD_DeInit
 .text.USBD_RegisterClassForInterface
                0x00000000c0d08a96       0x1a obj/usbd_core.o
                0x00000000c0d08a96                USBD_RegisterClassForInterface
 .text.USBD_Start
                0x00000000c0d08ab0        0xa obj/usbd_core.o
                0x00000000c0d08ab0                USBD_Start
 .text.USBD_SetClassConfig
                0x00000000c0d08aba       0x36 obj/usbd_core.o
                0x00000000c0d08aba                USBD_SetClassConfig
 .text.USBD_ClrClassConfig
                0x00000000c0d08af0       0x36 obj/usbd_core.o
                0x00000000c0d08af0                USBD_ClrClassConfig
 .text.USBD_LL_SetupStage
                0x00000000c0d08b26       0x5c obj/usbd_core.o
                0x00000000c0d08b26                USBD_LL_SetupStage
 .text.USBD_LL_DataOutStage
                0x00000000c0d08b82       0xae obj/usbd_core.o
                0x00000000c0d08b82                USBD_LL_DataOutStage
 .text.USBD_LL_DataInStage
                0x00000000c0d08c30       0xe4 obj/usbd_core.o
                0x00000000c0d08c30                USBD_LL_DataInStage
 .text.USBD_LL_Reset
                0x00000000c0d08d14       0x3c obj/usbd_core.o
                0x00000000c0d08d14                USBD_LL_Reset
 .text.USBD_LL_SetSpeed
                0x00000000c0d08d50        0x6 obj/usbd_core.o
                0x00000000c0d08d50                USBD_LL_SetSpeed
 .text.USBD_LL_Suspend
                0x00000000c0d08d56        0x4 obj/usbd_core.o
                0x00000000c0d08d56                USBD_LL_Suspend
 .text.USBD_LL_Resume
                0x00000000c0d08d5a        0x4 obj/usbd_core.o
                0x00000000c0d08d5a                USBD_LL_Resume
 .text.USBD_LL_SOF
                0x00000000c0d08d5e       0x3a obj/usbd_core.o
                0x00000000c0d08d5e                USBD_LL_SOF
 .text.usbd_is_valid_intf
                0x00000000c0d08d98       0x18 obj/usbd_ctlreq.o
                0x00000000c0d08d98                usbd_is_valid_intf
 .text.USBD_StdDevReq
                0x00000000c0d08db0       0x5a obj/usbd_ctlreq.o
                0x00000000c0d08db0                USBD_StdDevReq
 .text.USBD_GetDescriptor
                0x00000000c0d08e0a      0x10c obj/usbd_ctlreq.o
                0x00000000c0d08e0a                USBD_GetDescriptor
 .text.USBD_SetAddress
                0x00000000c0d08f16       0x4c obj/usbd_ctlreq.o
                0x00000000c0d08f16                USBD_SetAddress
 .text.USBD_SetConfig
                0x00000000c0d08f62       0x70 obj/usbd_ctlreq.o
                0x00000000c0d08f62                USBD_SetConfig
 .text.USBD_GetConfig
                0x00000000c0d08fd2       0x2e obj/usbd_ctlreq.o
                0x00000000c0d08fd2                USBD_GetConfig
 .text.USBD_GetStatus
                0x00000000c0d09000       0x46 obj/usbd_ctlreq.o
                0x00000000c0d09000                USBD_GetStatus
 .text.USBD_SetFeature
                0x00000000c0d09046       0x3a obj/usbd_ctlreq.o
                0x00000000c0d09046                USBD_SetFeature
 .text.USBD_ClrFeature
                0x00000000c0d09080       0x50 obj/usbd_ctlreq.o
                0x00000000c0d09080                USBD_ClrFeature
 .text.USBD_StdItfReq
                0x00000000c0d090d0       0x48 obj/usbd_ctlreq.o
                0x00000000c0d090d0                USBD_StdItfReq
 .text.USBD_StdEPReq
                0x00000000c0d09118      0x104 obj/usbd_ctlreq.o
                0x00000000c0d09118                USBD_StdEPReq
 .text.USBD_ParseSetupRequest
                0x00000000c0d0921c       0x28 obj/usbd_ctlreq.o
                0x00000000c0d0921c                USBD_ParseSetupRequest
 .text.USBD_CtlStall
                0x00000000c0d09244       0x14 obj/usbd_ctlreq.o
                0x00000000c0d09244                USBD_CtlStall
 .text.USBD_HID_Setup
                0x00000000c0d09258       0x96 obj/usbd_hid.o
                0x00000000c0d09258                USBD_HID_Setup
 .text.USBD_HID_Init
                0x00000000c0d092ee       0x32 obj/usbd_hid.o
                0x00000000c0d092ee                USBD_HID_Init
 .text.USBD_HID_DeInit
                0x00000000c0d09320       0x16 obj/usbd_hid.o
                0x00000000c0d09320                USBD_HID_DeInit
 *fill*         0x00000000c0d09336        0x2 00
 .text.USBD_HID_GetHidDescriptor_impl
                0x00000000c0d09338       0x34 obj/usbd_impl.o
                0x00000000c0d09338                USBD_HID_GetHidDescriptor_impl
 .text.USBD_HID_GetReportDescriptor_impl
                0x00000000c0d0936c       0x64 obj/usbd_impl.o
                0x00000000c0d0936c                USBD_HID_GetReportDescriptor_impl
 .text.USBD_U2F_Init
                0x00000000c0d093d0       0x32 obj/usbd_impl.o
                0x00000000c0d093d0                USBD_U2F_Init
 *fill*         0x00000000c0d09402        0x2 00
 .text.USBD_U2F_DataIn_impl
                0x00000000c0d09404       0x18 obj/usbd_impl.o
                0x00000000c0d09404                USBD_U2F_DataIn_impl
 .text.USBD_U2F_DataOut_impl
                0x00000000c0d0941c       0x2c obj/usbd_impl.o
                0x00000000c0d0941c                USBD_U2F_DataOut_impl
 .text.USBD_HID_DataIn_impl
                0x00000000c0d09448       0x18 obj/usbd_impl.o
                0x00000000c0d09448                USBD_HID_DataIn_impl
 .text.USBD_HID_DataOut_impl
                0x00000000c0d09460       0x4c obj/usbd_impl.o
                0x00000000c0d09460                USBD_HID_DataOut_impl
 .text.USBD_WEBUSB_Init
                0x00000000c0d094ac       0x2c obj/usbd_impl.o
                0x00000000c0d094ac                USBD_WEBUSB_Init
 .text.USBD_WEBUSB_DeInit
                0x00000000c0d094d8        0x4 obj/usbd_impl.o
                0x00000000c0d094d8                USBD_WEBUSB_DeInit
 .text.USBD_WEBUSB_Setup
                0x00000000c0d094dc        0x4 obj/usbd_impl.o
                0x00000000c0d094dc                USBD_WEBUSB_Setup
 .text.USBD_WEBUSB_DataIn
                0x00000000c0d094e0       0x18 obj/usbd_impl.o
                0x00000000c0d094e0                USBD_WEBUSB_DataIn
 .text.USBD_WEBUSB_DataOut
                0x00000000c0d094f8       0x4c obj/usbd_impl.o
                0x00000000c0d094f8                USBD_WEBUSB_DataOut
 .text.USBD_DeviceDescriptor
                0x00000000c0d09544       0x10 obj/usbd_impl.o
 .text.USBD_LangIDStrDescriptor
                0x00000000c0d09554       0x10 obj/usbd_impl.o
 .text.USBD_ManufacturerStrDescriptor
                0x00000000c0d09564       0x10 obj/usbd_impl.o
 .text.USBD_ProductStrDescriptor
                0x00000000c0d09574       0x10 obj/usbd_impl.o
 .text.USBD_SerialStrDescriptor
                0x00000000c0d09584       0x10 obj/usbd_impl.o
 .text.USBD_ConfigStrDescriptor
                0x00000000c0d09594       0x10 obj/usbd_impl.o
 .text.USBD_InterfaceStrDescriptor
                0x00000000c0d095a4       0x10 obj/usbd_impl.o
 .text.USBD_BOSDescriptor
                0x00000000c0d095b4       0x10 obj/usbd_impl.o
 .text.USBD_CtlError
                0x00000000c0d095c4       0x90 obj/usbd_impl.o
                0x00000000c0d095c4                USBD_CtlError
 .text.USB_power
                0x00000000c0d09654       0xb4 obj/usbd_impl.o
                0x00000000c0d09654                USB_power
 .text.USBD_GetCfgDesc_impl
                0x00000000c0d09708       0x10 obj/usbd_impl.o
 .text.USBD_GetDeviceQualifierDesc_impl
                0x00000000c0d09718       0x10 obj/usbd_impl.o
 .text.USBD_CtlSendData
                0x00000000c0d09728       0x2a obj/usbd_ioreq.o
                0x00000000c0d09728                USBD_CtlSendData
 .text.USBD_CtlContinueSendData
                0x00000000c0d09752       0x1c obj/usbd_ioreq.o
                0x00000000c0d09752                USBD_CtlContinueSendData
 .text.USBD_CtlContinueRx
                0x00000000c0d0976e        0xe obj/usbd_ioreq.o
                0x00000000c0d0976e                USBD_CtlContinueRx
 .text.USBD_CtlSendStatus
                0x00000000c0d0977c       0x18 obj/usbd_ioreq.o
                0x00000000c0d0977c                USBD_CtlSendStatus
 .text.USBD_CtlReceiveStatus
                0x00000000c0d09794       0x16 obj/usbd_ioreq.o
                0x00000000c0d09794                USBD_CtlReceiveStatus
 *fill*         0x00000000c0d097aa        0x2 00
 .text.array_hexstr
                0x00000000c0d097ac       0x30 obj/utils.o
                0x00000000c0d097ac                array_hexstr
 .text.convertUint256BE
                0x00000000c0d097dc       0x2c obj/utils.o
                0x00000000c0d097dc                convertUint256BE
 .text.getV     0x00000000c0d09808       0x8c obj/utils.o
                0x00000000c0d09808                getV
 .text.amountToString
                0x00000000c0d09894       0x88 obj/utils.o
                0x00000000c0d09894                amountToString
 .text.parse_swap_config
                0x00000000c0d0991c       0x48 obj/utils.o
                0x00000000c0d0991c                parse_swap_config
 .text.ux_flow_is_first
                0x00000000c0d09964       0x50 obj/ux_flow_engine.o
                0x00000000c0d09964                ux_flow_is_first
 .text.ux_flow_is_last
                0x00000000c0d099b4       0x40 obj/ux_flow_engine.o
                0x00000000c0d099b4                ux_flow_is_last
 .text.ux_flow_direction
                0x00000000c0d099f4       0x2c obj/ux_flow_engine.o
                0x00000000c0d099f4                ux_flow_direction
 .text.ux_flow_next_internal
                0x00000000c0d09a20       0x60 obj/ux_flow_engine.o
 .text.ux_flow_next
                0x00000000c0d09a80        0xa obj/ux_flow_engine.o
                0x00000000c0d09a80                ux_flow_next
 *fill*         0x00000000c0d09a8a        0x2 00
 .text.ux_flow_prev
                0x00000000c0d09a8c       0x64 obj/ux_flow_engine.o
                0x00000000c0d09a8c                ux_flow_prev
 .text.ux_flow_engine_init_step
                0x00000000c0d09af0       0x78 obj/ux_flow_engine.o
 .text.ux_flow_validate
                0x00000000c0d09b68       0xb0 obj/ux_flow_engine.o
                0x00000000c0d09b68                ux_flow_validate
 .text.ux_flow_init
                0x00000000c0d09c18       0x9c obj/ux_flow_engine.o
                0x00000000c0d09c18                ux_flow_init
 .text.ux_flow_button_callback
                0x00000000c0d09cb4       0x38 obj/ux_flow_engine.o
                0x00000000c0d09cb4                ux_flow_button_callback
 .text.ux_stack_get_step_params
                0x00000000c0d09cec       0x30 obj/ux_flow_engine.o
                0x00000000c0d09cec                ux_stack_get_step_params
 .text.ux_stack_get_current_step_params
                0x00000000c0d09d1c       0x14 obj/ux_flow_engine.o
                0x00000000c0d09d1c                ux_stack_get_current_step_params
 .text.ux_layout_bb_init_common
                0x00000000c0d09d30       0x3c obj/ux_layout_bb.o
                0x00000000c0d09d30                ux_layout_bb_init_common
 .text.ux_layout_bn_prepro
                0x00000000c0d09d6c       0x24 obj/ux_layout_bn.o
                0x00000000c0d09d6c                ux_layout_bn_prepro
 .text.ux_layout_bn_init
                0x00000000c0d09d90       0x28 obj/ux_layout_bn.o
                0x00000000c0d09d90                ux_layout_bn_init
 .text.ux_layout_nn_prepro
                0x00000000c0d09db8       0x24 obj/ux_layout_nn.o
                0x00000000c0d09db8                ux_layout_nn_prepro
 .text.ux_layout_nn_init
                0x00000000c0d09ddc       0x28 obj/ux_layout_nn.o
                0x00000000c0d09ddc                ux_layout_nn_init
 .text.ux_layout_paging_compute
                0x00000000c0d09e04      0x124 obj/ux_layout_paging.o
                0x00000000c0d09e04                ux_layout_paging_compute
 .text.ux_layout_paging_redisplay
                0x00000000c0d09f28       0x3c obj/ux_layout_paging.o
                0x00000000c0d09f28                ux_layout_paging_redisplay
 .text.ux_layout_paging_prepro
                0x00000000c0d09f64      0x100 obj/ux_layout_paging.o
 .text.ux_layout_paging_button_callback
                0x00000000c0d0a064       0x70 obj/ux_layout_paging.o
 .text.ux_layout_paging_init
                0x00000000c0d0a0d4       0x88 obj/ux_layout_paging.o
                0x00000000c0d0a0d4                ux_layout_paging_init
 .text.ux_layout_pb_prepro
                0x00000000c0d0a15c       0x58 obj/ux_layout_pb.o
                0x00000000c0d0a15c                ux_layout_pb_prepro
 .text.ux_layout_pb_init
                0x00000000c0d0a1b4       0x4c obj/ux_layout_pb.o
                0x00000000c0d0a1b4                ux_layout_pb_init
 .text.ux_layout_pbb_prepro
                0x00000000c0d0a200       0x68 obj/ux_layout_pbb.o
                0x00000000c0d0a200                ux_layout_pbb_prepro
 .text.ux_layout_pbb_init_common
                0x00000000c0d0a268       0x3c obj/ux_layout_pbb.o
                0x00000000c0d0a268                ux_layout_pbb_init_common
 .text.ux_layout_pbb_init
                0x00000000c0d0a2a4       0x4c obj/ux_layout_pbb.o
                0x00000000c0d0a2a4                ux_layout_pbb_init
 .text.ux_layout_pnn_prepro
                0x00000000c0d0a2f0       0x20 obj/ux_layout_pnn.o
                0x00000000c0d0a2f0                ux_layout_pnn_prepro
 .text.ux_layout_pnn_init
                0x00000000c0d0a310       0x28 obj/ux_layout_pnn.o
                0x00000000c0d0a310                ux_layout_pnn_init
 .text.ux_layout_strings_prepro
                0x00000000c0d0a338       0x58 obj/ux_layout_utils.o
                0x00000000c0d0a338                ux_layout_strings_prepro
 .text.ux_stack_push
                0x00000000c0d0a390       0x38 obj/ux_stack.o
                0x00000000c0d0a390                ux_stack_push
 .text.ux_stack_pop
                0x00000000c0d0a3c8       0x5c obj/ux_stack.o
                0x00000000c0d0a3c8                ux_stack_pop
 .text.ux_stack_display
                0x00000000c0d0a424       0x4c obj/ux_stack.o
                0x00000000c0d0a424                ux_stack_display
 .text.ux_stack_init
                0x00000000c0d0a470       0x28 obj/ux_stack.o
                0x00000000c0d0a470                ux_stack_init
 .text.ux_stack_al_display_next_element
                0x00000000c0d0a498       0x8c obj/ux_stack.o
                0x00000000c0d0a498                ux_stack_al_display_next_element
 .text          0x00000000c0d0a524      0x114 /home/jingxu/workspace/ledgerApp/gcc-arm-none-eabi-10-2020-q4-major-x86_64-linux/gcc-arm-none-eabi-10-2020-q4-major/bin/../lib/gcc/arm-none-eabi/10.2.1/thumb/v6-m/nofp/libgcc.a(_udivsi3.o)
                0x00000000c0d0a524                __udivsi3
                0x00000000c0d0a524                __aeabi_uidiv
                0x00000000c0d0a630                __aeabi_uidivmod
 .text          0x00000000c0d0a638        0x4 /home/jingxu/workspace/ledgerApp/gcc-arm-none-eabi-10-2020-q4-major-x86_64-linux/gcc-arm-none-eabi-10-2020-q4-major/bin/../lib/gcc/arm-none-eabi/10.2.1/thumb/v6-m/nofp/libgcc.a(_dvmd_tls.o)
                0x00000000c0d0a638                __aeabi_ldiv0
                0x00000000c0d0a638                __aeabi_idiv0
 .text          0x00000000c0d0a63c       0x18 /home/jingxu/workspace/ledgerApp/gcc-arm-none-eabi-10-2020-q4-major-x86_64-linux/gcc-arm-none-eabi-10-2020-q4-major/bin/../lib/gcc/arm-none-eabi/10.2.1/thumb/v6-m/nofp/libgcc.a(_lshrdi3.o)
                0x00000000c0d0a63c                __aeabi_llsr
                0x00000000c0d0a63c                __lshrdi3
 .text          0x00000000c0d0a654       0x18 /home/jingxu/workspace/ledgerApp/gcc-arm-none-eabi-10-2020-q4-major-x86_64-linux/gcc-arm-none-eabi-10-2020-q4-major/bin/../lib/gcc/arm-none-eabi/10.2.1/thumb/v6-m/nofp/libgcc.a(_ashldi3.o)
                0x00000000c0d0a654                __ashldi3
                0x00000000c0d0a654                __aeabi_llsl
 .text.__aeabi_memclr
                0x00000000c0d0a66c        0xc /home/jingxu/workspace/ledgerApp/gcc-arm-none-eabi-10-2020-q4-major-x86_64-linux/gcc-arm-none-eabi-10-2020-q4-major/bin/../lib/gcc/arm-none-eabi/10.2.1/../../../../arm-none-eabi/lib/thumb/v6-m/nofp/libc.a(lib_a-aeabi_memclr.o)
                0x00000000c0d0a66c                __aeabi_memclr8
                0x00000000c0d0a66c                __aeabi_memclr
                0x00000000c0d0a66c                __aeabi_memclr4
 .text.__aeabi_memcpy
                0x00000000c0d0a678        0x8 /home/jingxu/workspace/ledgerApp/gcc-arm-none-eabi-10-2020-q4-major-x86_64-linux/gcc-arm-none-eabi-10-2020-q4-major/bin/../lib/gcc/arm-none-eabi/10.2.1/../../../../arm-none-eabi/lib/thumb/v6-m/nofp/libc.a(lib_a-aeabi_memcpy.o)
                0x00000000c0d0a678                __aeabi_memcpy
                0x00000000c0d0a678                __aeabi_memcpy4
                0x00000000c0d0a678                __aeabi_memcpy8
 .text.__aeabi_memmove
                0x00000000c0d0a680        0x8 /home/jingxu/workspace/ledgerApp/gcc-arm-none-eabi-10-2020-q4-major-x86_64-linux/gcc-arm-none-eabi-10-2020-q4-major/bin/../lib/gcc/arm-none-eabi/10.2.1/../../../../arm-none-eabi/lib/thumb/v6-m/nofp/libc.a(lib_a-aeabi_memmove.o)
                0x00000000c0d0a680                __aeabi_memmove8
                0x00000000c0d0a680                __aeabi_memmove
                0x00000000c0d0a680                __aeabi_memmove4
 .text.__aeabi_memset
                0x00000000c0d0a688       0x10 /home/jingxu/workspace/ledgerApp/gcc-arm-none-eabi-10-2020-q4-major-x86_64-linux/gcc-arm-none-eabi-10-2020-q4-major/bin/../lib/gcc/arm-none-eabi/10.2.1/../../../../arm-none-eabi/lib/thumb/v6-m/nofp/libc.a(lib_a-aeabi_memset.o)
                0x00000000c0d0a688                __aeabi_memset
                0x00000000c0d0a688                __aeabi_memset8
                0x00000000c0d0a688                __aeabi_memset4
 .text.explicit_bzero
                0x00000000c0d0a698        0x8 /home/jingxu/workspace/ledgerApp/gcc-arm-none-eabi-10-2020-q4-major-x86_64-linux/gcc-arm-none-eabi-10-2020-q4-major/bin/../lib/gcc/arm-none-eabi/10.2.1/../../../../arm-none-eabi/lib/thumb/v6-m/nofp/libc.a(lib_a-explicit_bzero.o)
                0x00000000c0d0a698                explicit_bzero
 .text.memcmp   0x00000000c0d0a6a0       0x48 /home/jingxu/workspace/ledgerApp/gcc-arm-none-eabi-10-2020-q4-major-x86_64-linux/gcc-arm-none-eabi-10-2020-q4-major/bin/../lib/gcc/arm-none-eabi/10.2.1/../../../../arm-none-eabi/lib/thumb/v6-m/nofp/libc.a(lib_a-memcmp.o)
                0x00000000c0d0a6a0                memcmp
 .text.memcpy   0x00000000c0d0a6e8       0xa4 /home/jingxu/workspace/ledgerApp/gcc-arm-none-eabi-10-2020-q4-major-x86_64-linux/gcc-arm-none-eabi-10-2020-q4-major/bin/../lib/gcc/arm-none-eabi/10.2.1/../../../../arm-none-eabi/lib/thumb/v6-m/nofp/libc.a(lib_a-memcpy-stub.o)
                0x00000000c0d0a6e8                memcpy
 .text.memmove  0x00000000c0d0a78c       0xac /home/jingxu/workspace/ledgerApp/gcc-arm-none-eabi-10-2020-q4-major-x86_64-linux/gcc-arm-none-eabi-10-2020-q4-major/bin/../lib/gcc/arm-none-eabi/10.2.1/../../../../arm-none-eabi/lib/thumb/v6-m/nofp/libc.a(lib_a-memmove.o)
                0x00000000c0d0a78c                memmove
 .text.memset   0x00000000c0d0a838       0xa8 /home/jingxu/workspace/ledgerApp/gcc-arm-none-eabi-10-2020-q4-major-x86_64-linux/gcc-arm-none-eabi-10-2020-q4-major/bin/../lib/gcc/arm-none-eabi/10.2.1/../../../../arm-none-eabi/lib/thumb/v6-m/nofp/libc.a(lib_a-memset.o)
                0x00000000c0d0a838                memset
 .text          0x00000000c0d0a8e0       0x34 /home/jingxu/workspace/ledgerApp/gcc-arm-none-eabi-10-2020-q4-major-x86_64-linux/gcc-arm-none-eabi-10-2020-q4-major/bin/../lib/gcc/arm-none-eabi/10.2.1/../../../../arm-none-eabi/lib/thumb/v6-m/nofp/libc.a(lib_a-setjmp.o)
                0x00000000c0d0a8e0                setjmp
                0x00000000c0d0a8f8                longjmp
 .text.strcat   0x00000000c0d0a914       0x4c /home/jingxu/workspace/ledgerApp/gcc-arm-none-eabi-10-2020-q4-major-x86_64-linux/gcc-arm-none-eabi-10-2020-q4-major/bin/../lib/gcc/arm-none-eabi/10.2.1/../../../../arm-none-eabi/lib/thumb/v6-m/nofp/libc.a(lib_a-strcat.o)
                0x00000000c0d0a914                strcat
 .text          0x00000000c0d0a960       0x88 /home/jingxu/workspace/ledgerApp/gcc-arm-none-eabi-10-2020-q4-major-x86_64-linux/gcc-arm-none-eabi-10-2020-q4-major/bin/../lib/gcc/arm-none-eabi/10.2.1/../../../../arm-none-eabi/lib/thumb/v6-m/nofp/libc.a(lib_a-strcmp.o)
                0x00000000c0d0a960                strcmp
 .text.strcpy   0x00000000c0d0a9e8       0x10 /home/jingxu/workspace/ledgerApp/gcc-arm-none-eabi-10-2020-q4-major-x86_64-linux/gcc-arm-none-eabi-10-2020-q4-major/bin/../lib/gcc/arm-none-eabi/10.2.1/../../../../arm-none-eabi/lib/thumb/v6-m/nofp/libc.a(lib_a-strcpy.o)
                0x00000000c0d0a9e8                strcpy
 .text.strlen   0x00000000c0d0a9f8       0x5c /home/jingxu/workspace/ledgerApp/gcc-arm-none-eabi-10-2020-q4-major-x86_64-linux/gcc-arm-none-eabi-10-2020-q4-major/bin/../lib/gcc/arm-none-eabi/10.2.1/../../../../arm-none-eabi/lib/thumb/v6-m/nofp/libc.a(lib_a-strlen-stub.o)
                0x00000000c0d0a9f8                strlen
 .text.strncmp  0x00000000c0d0aa54       0x74 /home/jingxu/workspace/ledgerApp/gcc-arm-none-eabi-10-2020-q4-major-x86_64-linux/gcc-arm-none-eabi-10-2020-q4-major/bin/../lib/gcc/arm-none-eabi/10.2.1/../../../../arm-none-eabi/lib/thumb/v6-m/nofp/libc.a(lib_a-strncmp.o)
                0x00000000c0d0aa54                strncmp
 .text.strncpy  0x00000000c0d0aac8       0x6c /home/jingxu/workspace/ledgerApp/gcc-arm-none-eabi-10-2020-q4-major-x86_64-linux/gcc-arm-none-eabi-10-2020-q4-major/bin/../lib/gcc/arm-none-eabi/10.2.1/../../../../arm-none-eabi/lib/thumb/v6-m/nofp/libc.a(lib_a-strncpy.o)
                0x00000000c0d0aac8                strncpy
 .text.strnlen  0x00000000c0d0ab34       0x24 /home/jingxu/workspace/ledgerApp/gcc-arm-none-eabi-10-2020-q4-major-x86_64-linux/gcc-arm-none-eabi-10-2020-q4-major/bin/../lib/gcc/arm-none-eabi/10.2.1/../../../../arm-none-eabi/lib/thumb/v6-m/nofp/libc.a(lib_a-strnlen.o)
                0x00000000c0d0ab34                strnlen
 .text.bzero    0x00000000c0d0ab58        0xc /home/jingxu/workspace/ledgerApp/gcc-arm-none-eabi-10-2020-q4-major-x86_64-linux/gcc-arm-none-eabi-10-2020-q4-major/bin/../lib/gcc/arm-none-eabi/10.2.1/../../../../arm-none-eabi/lib/thumb/v6-m/nofp/libc.a(lib_a-bzero.o)
                0x00000000c0d0ab58                bzero
 *(.rodata)
 *(.rodata.[^N]*)
 .rodata.str1.1
                0x00000000c0d0ab64       0x41 obj/base64.o
 .rodata.str1.1
                0x00000000c0d0aba5       0x16 obj/checks.o
 *fill*         0x00000000c0d0abbb        0x1 00
 .rodata.ui_audited_elements
                0x00000000c0d0abbc       0x60 obj/checks.o
                0x00000000c0d0abbc                ui_audited_elements
 .rodata.str1.1
                0x00000000c0d0ac1c       0x15 obj/cmd_getPublicKey.o
 .rodata.str1.1
                0x00000000c0d0ac31       0x54 obj/cmd_provideTokenInfo.o
 .rodata.TOKEN_SIGNATURE_PUBLIC_KEY
                0x00000000c0d0ac85       0x41 obj/cmd_provideTokenInfo.o
 .rodata.str1.1
                0x00000000c0d0acc6       0x29 obj/cmd_signMessage.o
                                         0x3c (size before relaxing)
 .rodata.SIGN_MAGIC
                0x00000000c0d0acef       0x1b obj/cmd_signMessage.o
 .rodata.str1.1
                0x00000000c0d0ad0a       0x1c obj/cmd_signMessage712.o
 .rodata.str1.1
                0x00000000c0d0ad0a       0x46 obj/cmd_signTx.o
                                         0x7d (size before relaxing)
 .rodata.str1.1
                0x00000000c0d0ad50        0x7 obj/cmd_stark_getPublicKey.o
                                         0x15 (size before relaxing)
 .rodata.str1.1
                0x00000000c0d0ad57       0x1c obj/cmd_stark_provideQuantum.o
 .rodata.str1.1
                0x00000000c0d0ad73      0x132 obj/cmd_stark_sign.o
                                        0x14a (size before relaxing)
 .rodata.str1.1
                0x00000000c0d0aea5       0x22 obj/cmd_stark_unsafe_sign.o
 .rodata.UNDERLYING_ASSET_DECIMALS
                0x00000000c0d0aea5       0x75 obj/compound_plugin.o
                0x00000000c0d0aea5                UNDERLYING_ASSET_DECIMALS
 .rodata.str1.1
                0x00000000c0d0af1a      0x145 obj/compound_plugin.o
 .rodata.cst4   0x00000000c0d0b05f        0x4 obj/compound_plugin.o
 *fill*         0x00000000c0d0b063        0x1 00
 .rodata.str1.4
                0x00000000c0d0b064        0xa obj/compound_plugin.o
                                         0x16 (size before relaxing)
 .rodata.COMPOUND_BINDINGS
                0x00000000c0d0b06e       0xd8 obj/erc20_plugin.o
                0x00000000c0d0b06e                COMPOUND_BINDINGS
 .rodata.str1.1
                0x00000000c0d0b146       0x9e obj/erc20_plugin.o
                                         0xf3 (size before relaxing)
 .rodata.str1.4
                0x00000000c0d0b1e4        0xb obj/erc20_plugin.o
                                         0x22 (size before relaxing)
 .rodata.str1.1
                0x00000000c0d0b1ef      0x103 obj/erc721_plugin.o
                                        0x135 (size before relaxing)
 *fill*         0x00000000c0d0b2f2        0x2 00
 .rodata.str1.4
                0x00000000c0d0b2f4       0x29 obj/erc721_plugin.o
 .rodata.str1.1
                0x00000000c0d0b31d      0x2d2 obj/ethUstream.o
 .rodata.str1.1
                0x00000000c0d0b5ef       0x50 obj/ethUtils.o
 .rodata.str1.1
                0x00000000c0d0b63f       0xfc obj/eth_plugin_handler.o
 .rodata.ERC20_TRANSFER_SELECTOR
                0x00000000c0d0b73b        0x4 obj/eth_plugin_internal.o
 .rodata.ERC20_APPROVE_SELECTOR
                0x00000000c0d0b73f        0x4 obj/eth_plugin_internal.o
 *fill*         0x00000000c0d0b743        0x1 00
 .rodata.ERC20_SELECTORS
                0x00000000c0d0b744        0x8 obj/eth_plugin_internal.o
                0x00000000c0d0b744                ERC20_SELECTORS
 .rodata.ERC721_APPROVE_SELECTOR
                0x00000000c0d0b74c        0x4 obj/eth_plugin_internal.o
 .rodata.ERC721_SELECTORS
                0x00000000c0d0b750        0x4 obj/eth_plugin_internal.o
                0x00000000c0d0b750                ERC721_SELECTORS
 .rodata.COMPOUND_REDEEM_UNDERLYING_SELECTOR
                0x00000000c0d0b754        0x4 obj/eth_plugin_internal.o
 .rodata.COMPOUND_REDEEM_SELECTOR
                0x00000000c0d0b758        0x4 obj/eth_plugin_internal.o
 .rodata.COMPOUND_MINT_SELECTOR
                0x00000000c0d0b75c        0x4 obj/eth_plugin_internal.o
 .rodata.CETH_MINT_SELECTOR
                0x00000000c0d0b760        0x4 obj/eth_plugin_internal.o
 .rodata.COMPOUND_SELECTORS
                0x00000000c0d0b764       0x10 obj/eth_plugin_internal.o
                0x00000000c0d0b764                COMPOUND_SELECTORS
 .rodata.STARKWARE_REGISTER_ID
                0x00000000c0d0b774        0x4 obj/eth_plugin_internal.o
 .rodata.STARKWARE_DEPOSIT_TOKEN_ID
                0x00000000c0d0b778        0x4 obj/eth_plugin_internal.o
 .rodata.STARKWARE_DEPOSIT_ETH_ID
                0x00000000c0d0b77c        0x4 obj/eth_plugin_internal.o
 .rodata.STARKWARE_DEPOSIT_CANCEL_ID
                0x00000000c0d0b780        0x4 obj/eth_plugin_internal.o
 .rodata.STARKWARE_DEPOSIT_RECLAIM_ID
                0x00000000c0d0b784        0x4 obj/eth_plugin_internal.o
 .rodata.STARKWARE_WITHDRAW_ID
                0x00000000c0d0b788        0x4 obj/eth_plugin_internal.o
 .rodata.STARKWARE_FULL_WITHDRAWAL_ID
                0x00000000c0d0b78c        0x4 obj/eth_plugin_internal.o
 .rodata.STARKWARE_FREEZE_ID
                0x00000000c0d0b790        0x4 obj/eth_plugin_internal.o
 .rodata.STARKWARE_ESCAPE_ID
                0x00000000c0d0b794        0x4 obj/eth_plugin_internal.o
 .rodata.STARKWARE_VERIFY_ESCAPE_ID
                0x00000000c0d0b798        0x4 obj/eth_plugin_internal.o
 .rodata.STARKWARE_WITHDRAW_TO_ID
                0x00000000c0d0b79c        0x4 obj/eth_plugin_internal.o
 .rodata.STARKWARE_DEPOSIT_NFT_ID
                0x00000000c0d0b7a0        0x4 obj/eth_plugin_internal.o
 .rodata.STARKWARE_DEPOSIT_NFT_RECLAIM_ID
                0x00000000c0d0b7a4        0x4 obj/eth_plugin_internal.o
 .rodata.STARKWARE_WITHDRAW_AND_MINT_ID
                0x00000000c0d0b7a8        0x4 obj/eth_plugin_internal.o
 .rodata.STARKWARE_WITHDRAW_NFT_ID
                0x00000000c0d0b7ac        0x4 obj/eth_plugin_internal.o
 .rodata.STARKWARE_WITHDRAW_NFT_TO_ID
                0x00000000c0d0b7b0        0x4 obj/eth_plugin_internal.o
 .rodata.STARKWARE_SELECTORS
                0x00000000c0d0b7b4       0x40 obj/eth_plugin_internal.o
                0x00000000c0d0b7b4                STARKWARE_SELECTORS
 .rodata.INTERNAL_ETH_PLUGINS
                0x00000000c0d0b7f4       0x64 obj/eth_plugin_internal.o
                0x00000000c0d0b7f4                INTERNAL_ETH_PLUGINS
 .rodata.str1.1
                0x00000000c0d0b858       0x81 obj/eth_plugin_ui.o
 *fill*         0x00000000c0d0b8d9        0x3 00
 .rodata.ux_plugin_approval_intro_step_val
                0x00000000c0d0b8dc        0xc obj/eth_plugin_ui.o
                0x00000000c0d0b8dc                ux_plugin_approval_intro_step_val
 .rodata.ux_plugin_approval_intro_step
                0x00000000c0d0b8e8       0x10 obj/eth_plugin_ui.o
                0x00000000c0d0b8e8                ux_plugin_approval_intro_step
 .rodata.ux_plugin_approval_id_step_val
                0x00000000c0d0b8f8        0x8 obj/eth_plugin_ui.o
                0x00000000c0d0b8f8                ux_plugin_approval_id_step_val
 .rodata.ux_plugin_approval_id_step
                0x00000000c0d0b900       0x10 obj/eth_plugin_ui.o
                0x00000000c0d0b900                ux_plugin_approval_id_step
 .rodata.ux_plugin_approval_before_step
                0x00000000c0d0b910       0x10 obj/eth_plugin_ui.o
                0x00000000c0d0b910                ux_plugin_approval_before_step
 .rodata.ux_plugin_approval_display_step_val
                0x00000000c0d0b920        0x8 obj/eth_plugin_ui.o
                0x00000000c0d0b920                ux_plugin_approval_display_step_val
 .rodata.ux_plugin_approval_display_step
                0x00000000c0d0b928       0x10 obj/eth_plugin_ui.o
                0x00000000c0d0b928                ux_plugin_approval_display_step
 .rodata.ux_plugin_approval_after_step
                0x00000000c0d0b938       0x10 obj/eth_plugin_ui.o
                0x00000000c0d0b938                ux_plugin_approval_after_step
 .rodata.ux_plugin_approval_fees_step_val
                0x00000000c0d0b948        0x8 obj/eth_plugin_ui.o
                0x00000000c0d0b948                ux_plugin_approval_fees_step_val
 .rodata.ux_plugin_approval_fees_step
                0x00000000c0d0b950       0x10 obj/eth_plugin_ui.o
                0x00000000c0d0b950                ux_plugin_approval_fees_step
 .rodata.ux_plugin_approval_ok_step_validate_step
                0x00000000c0d0b960       0x10 obj/eth_plugin_ui.o
                0x00000000c0d0b960                ux_plugin_approval_ok_step_validate_step
 .rodata.ux_plugin_approval_ok_step_validate
                0x00000000c0d0b970        0x8 obj/eth_plugin_ui.o
                0x00000000c0d0b970                ux_plugin_approval_ok_step_validate
 .rodata.ux_plugin_approval_ok_step_val
                0x00000000c0d0b978        0xc obj/eth_plugin_ui.o
                0x00000000c0d0b978                ux_plugin_approval_ok_step_val
 .rodata.ux_plugin_approval_ok_step
                0x00000000c0d0b984       0x10 obj/eth_plugin_ui.o
                0x00000000c0d0b984                ux_plugin_approval_ok_step
 .rodata.ux_plugin_approval_cancel_step_validate_step
                0x00000000c0d0b994       0x10 obj/eth_plugin_ui.o
                0x00000000c0d0b994                ux_plugin_approval_cancel_step_validate_step
 .rodata.ux_plugin_approval_cancel_step_validate
                0x00000000c0d0b9a4        0x8 obj/eth_plugin_ui.o
                0x00000000c0d0b9a4                ux_plugin_approval_cancel_step_validate
 .rodata.ux_plugin_approval_cancel_step_val
                0x00000000c0d0b9ac        0x8 obj/eth_plugin_ui.o
                0x00000000c0d0b9ac                ux_plugin_approval_cancel_step_val
 .rodata.ux_plugin_approval_cancel_step
                0x00000000c0d0b9b4       0x10 obj/eth_plugin_ui.o
                0x00000000c0d0b9b4                ux_plugin_approval_cancel_step
 .rodata.ux_plugin_approval_flow
                0x00000000c0d0b9c4       0x24 obj/eth_plugin_ui.o
                0x00000000c0d0b9c4                ux_plugin_approval_flow
 .rodata.C_icon_back_x_colors
                0x00000000c0d0b9e8        0x8 obj/glyphs.o
                0x00000000c0d0b9e8                C_icon_back_x_colors
 .rodata.C_icon_back_x_bitmap
                0x00000000c0d0b9f0       0x19 obj/glyphs.o
                0x00000000c0d0b9f0                C_icon_back_x_bitmap
 *fill*         0x00000000c0d0ba09        0x3 00
 .rodata.C_icon_back_x
                0x00000000c0d0ba0c       0x14 obj/glyphs.o
                0x00000000c0d0ba0c                C_icon_back_x
 .rodata.C_icon_certificate_colors
                0x00000000c0d0ba20        0x8 obj/glyphs.o
                0x00000000c0d0ba20                C_icon_certificate_colors
 .rodata.C_icon_certificate_bitmap
                0x00000000c0d0ba28       0x19 obj/glyphs.o
                0x00000000c0d0ba28                C_icon_certificate_bitmap
 *fill*         0x00000000c0d0ba41        0x3 00
 .rodata.C_icon_certificate
                0x00000000c0d0ba44       0x14 obj/glyphs.o
                0x00000000c0d0ba44                C_icon_certificate
 .rodata.C_icon_crossmark_colors
                0x00000000c0d0ba58        0x8 obj/glyphs.o
                0x00000000c0d0ba58                C_icon_crossmark_colors
 .rodata.C_icon_crossmark_bitmap
                0x00000000c0d0ba60       0x19 obj/glyphs.o
                0x00000000c0d0ba60                C_icon_crossmark_bitmap
 *fill*         0x00000000c0d0ba79        0x3 00
 .rodata.C_icon_crossmark
                0x00000000c0d0ba7c       0x14 obj/glyphs.o
                0x00000000c0d0ba7c                C_icon_crossmark
 .rodata.C_icon_dashboard_x_colors
                0x00000000c0d0ba90        0x8 obj/glyphs.o
                0x00000000c0d0ba90                C_icon_dashboard_x_colors
 .rodata.C_icon_dashboard_x_bitmap
                0x00000000c0d0ba98       0x19 obj/glyphs.o
                0x00000000c0d0ba98                C_icon_dashboard_x_bitmap
 *fill*         0x00000000c0d0bab1        0x3 00
 .rodata.C_icon_dashboard_x
                0x00000000c0d0bab4       0x14 obj/glyphs.o
                0x00000000c0d0bab4                C_icon_dashboard_x
 .rodata.C_icon_eye_colors
                0x00000000c0d0bac8        0x8 obj/glyphs.o
                0x00000000c0d0bac8                C_icon_eye_colors
 .rodata.C_icon_eye_bitmap
                0x00000000c0d0bad0       0x19 obj/glyphs.o
                0x00000000c0d0bad0                C_icon_eye_bitmap
 *fill*         0x00000000c0d0bae9        0x3 00
 .rodata.C_icon_eye
                0x00000000c0d0baec       0x14 obj/glyphs.o
                0x00000000c0d0baec                C_icon_eye
 .rodata.C_icon_left_colors
                0x00000000c0d0bb00        0x8 obj/glyphs.o
                0x00000000c0d0bb00                C_icon_left_colors
 .rodata.C_icon_left_bitmap
                0x00000000c0d0bb08        0x4 obj/glyphs.o
                0x00000000c0d0bb08                C_icon_left_bitmap
 .rodata.C_icon_left
                0x00000000c0d0bb0c       0x14 obj/glyphs.o
                0x00000000c0d0bb0c                C_icon_left
 .rodata.C_icon_right_colors
                0x00000000c0d0bb20        0x8 obj/glyphs.o
                0x00000000c0d0bb20                C_icon_right_colors
 .rodata.C_icon_right_bitmap
                0x00000000c0d0bb28        0x4 obj/glyphs.o
                0x00000000c0d0bb28                C_icon_right_bitmap
 .rodata.C_icon_right
                0x00000000c0d0bb2c       0x14 obj/glyphs.o
                0x00000000c0d0bb2c                C_icon_right
 .rodata.C_icon_validate_14_colors
                0x00000000c0d0bb40        0x8 obj/glyphs.o
                0x00000000c0d0bb40                C_icon_validate_14_colors
 .rodata.C_icon_validate_14_bitmap
                0x00000000c0d0bb48       0x19 obj/glyphs.o
                0x00000000c0d0bb48                C_icon_validate_14_bitmap
 *fill*         0x00000000c0d0bb61        0x3 00
 .rodata.C_icon_validate_14
                0x00000000c0d0bb64       0x14 obj/glyphs.o
                0x00000000c0d0bb64                C_icon_validate_14
 .rodata.C_icon_warning_colors
                0x00000000c0d0bb78        0x8 obj/glyphs.o
                0x00000000c0d0bb78                C_icon_warning_colors
 .rodata.C_icon_warning_bitmap
                0x00000000c0d0bb80       0x19 obj/glyphs.o
                0x00000000c0d0bb80                C_icon_warning_bitmap
 *fill*         0x00000000c0d0bb99        0x3 00
 .rodata.C_icon_warning
                0x00000000c0d0bb9c       0x14 obj/glyphs.o
                0x00000000c0d0bb9c                C_icon_warning
 .rodata.str1.1
                0x00000000c0d0bbb0       0x8c obj/handle_check_address.o
                                         0x9d (size before relaxing)
 .rodata.str1.1
                0x00000000c0d0bc3c       0x54 obj/handle_get_printable_amount.o
 .rodata.str1.1
                0x00000000c0d0bc90       0x12 obj/handle_swap_sign_transaction.o
                                         0x2e (size before relaxing)
 .rodata.str1.1
                0x00000000c0d0bca2      0x167 obj/logic_signTx.o
 .rodata.str1.4
                0x00000000c0d0be09        0x9 obj/logic_signTx.o
 .rodata.str1.1
                0x00000000c0d0be09       0x53 obj/main.o
 .rodata.str1.1
                0x00000000c0d0be5c       0x1a obj/os.o
 .rodata..L.str
                0x00000000c0d0be76        0x5 obj/os_io_seproxyhal.o
 .rodata..L.str.1
                0x00000000c0d0be7b        0x5 obj/os_io_seproxyhal.o
 .rodata..L.str.2
                0x00000000c0d0be80        0x5 obj/os_io_seproxyhal.o
 .rodata.str1.1
                0x00000000c0d0be85        0x6 obj/os_printf.o
                                          0x8 (size before relaxing)
 .rodata.cst16  0x00000000c0d0be8b       0x20 obj/os_printf.o
 .rodata.str1.1
                0x00000000c0d0beab      0x112 obj/stark_crypto.o
 .rodata.STARK_DERIVE_BIAS
                0x00000000c0d0bfbd       0x20 obj/stark_crypto.o
 .rodata.C_cx_Stark256_n
                0x00000000c0d0bfdd       0x20 obj/stark_crypto.o
 .rodata.PEDERSEN_POINTS
                0x00000000c0d0bffd      0x104 obj/stark_utils.o
 *fill*         0x00000000c0d0c101        0x3 00
 .rodata.PEDERSEN_SHIFT
                0x00000000c0d0c104       0x41 obj/stark_utils.o
 .rodata.str1.1
                0x00000000c0d0c145      0x178 obj/stark_utils.o
 .rodata.cst4   0x00000000c0d0c2bd       0x10 obj/stark_utils.o
 .rodata.ETH_SELECTOR
                0x00000000c0d0c2cd        0x4 obj/stark_utils.o
 .rodata.MINTABLE_ASSET_ID_PREFIX
                0x00000000c0d0c2d1        0xa obj/stark_utils.o
 .rodata.DEVERSIFI_CONTRACT
                0x00000000c0d0c2db       0x15 obj/starkware_plugin.o
 .rodata.str1.1
                0x00000000c0d0c2f0      0x17f obj/starkware_plugin.o
                                        0x211 (size before relaxing)
 .rodata.cst16  0x00000000c0d0c46f       0x20 obj/starkware_plugin.o
 *fill*         0x00000000c0d0c48f        0x1 00
 .rodata.str1.4
                0x00000000c0d0c490       0xd5 obj/starkware_plugin.o
                                         0xf5 (size before relaxing)
 .rodata.SW_INTERNAL
                0x00000000c0d0c565        0x2 obj/u2f_impl.o
 .rodata.SW_BUSY
                0x00000000c0d0c567        0x2 obj/u2f_impl.o
 .rodata.SW_WRONG_LENGTH
                0x00000000c0d0c569        0x2 obj/u2f_impl.o
 .rodata.SW_PROOF_OF_PRESENCE_REQUIRED
                0x00000000c0d0c56b        0x2 obj/u2f_impl.o
 .rodata..L.str
                0x00000000c0d0c56d        0x6 obj/u2f_impl.o
 .rodata.str1.1
                0x00000000c0d0c573        0x6 obj/u2f_impl.o
 .rodata..L.str.2
                0x00000000c0d0c579        0x5 obj/u2f_impl.o
 .rodata.SW_BAD_KEY_HANDLE
                0x00000000c0d0c57e        0x2 obj/u2f_impl.o
 .rodata.U2F_VERSION
                0x00000000c0d0c580        0x8 obj/u2f_impl.o
 .rodata.INFO   0x00000000c0d0c588        0x4 obj/u2f_impl.o
 .rodata.SW_UNKNOWN_CLASS
                0x00000000c0d0c58c        0x2 obj/u2f_impl.o
 .rodata.SW_UNKNOWN_INSTRUCTION
                0x00000000c0d0c58e        0x2 obj/u2f_impl.o
 .rodata.str1.1
                0x00000000c0d0c590       0x29 obj/u2f_io.o
 .rodata.BROADCAST_CHANNEL
                0x00000000c0d0c5b9        0x4 obj/u2f_transport.o
 .rodata.FORBIDDEN_CHANNEL
                0x00000000c0d0c5bd        0x4 obj/u2f_transport.o
 .rodata.EIP_712_MAGIC
                0x00000000c0d0c5c1        0x2 obj/ui_common_signMessage712.o
 .rodata.str1.1
                0x00000000c0d0c5c3       0x1a obj/ui_common_signMessage712.o
 .rodata.str1.1
                0x00000000c0d0c5dd       0x1a obj/ui_common_signTx.o
 .rodata.str1.1
                0x00000000c0d0c5dd       0x69 obj/ui_flow.o
                                         0x7b (size before relaxing)
 *fill*         0x00000000c0d0c646        0x2 00
 .rodata.ux_idle_flow_1_step_val
                0x00000000c0d0c648        0x8 obj/ui_flow.o
                0x00000000c0d0c648                ux_idle_flow_1_step_val
 .rodata.ux_idle_flow_1_step
                0x00000000c0d0c650       0x10 obj/ui_flow.o
                0x00000000c0d0c650                ux_idle_flow_1_step
 .rodata.ux_idle_flow_2_step_val
                0x00000000c0d0c660        0x8 obj/ui_flow.o
                0x00000000c0d0c660                ux_idle_flow_2_step_val
 .rodata.ux_idle_flow_2_step
                0x00000000c0d0c668       0x10 obj/ui_flow.o
                0x00000000c0d0c668                ux_idle_flow_2_step
 .rodata.ux_idle_flow_3_step_validate_step
                0x00000000c0d0c678       0x10 obj/ui_flow.o
                0x00000000c0d0c678                ux_idle_flow_3_step_validate_step
 .rodata.ux_idle_flow_3_step_validate
                0x00000000c0d0c688        0x8 obj/ui_flow.o
                0x00000000c0d0c688                ux_idle_flow_3_step_validate
 .rodata.ux_idle_flow_3_step_val
                0x00000000c0d0c690        0x8 obj/ui_flow.o
                0x00000000c0d0c690                ux_idle_flow_3_step_val
 .rodata.ux_idle_flow_3_step
                0x00000000c0d0c698       0x10 obj/ui_flow.o
                0x00000000c0d0c698                ux_idle_flow_3_step
 .rodata.ux_idle_flow_4_step_validate_step
                0x00000000c0d0c6a8       0x10 obj/ui_flow.o
                0x00000000c0d0c6a8                ux_idle_flow_4_step_validate_step
 .rodata.ux_idle_flow_4_step_validate
                0x00000000c0d0c6b8        0x8 obj/ui_flow.o
                0x00000000c0d0c6b8                ux_idle_flow_4_step_validate
 .rodata.ux_idle_flow_4_step_val
                0x00000000c0d0c6c0        0x8 obj/ui_flow.o
                0x00000000c0d0c6c0                ux_idle_flow_4_step_val
 .rodata.ux_idle_flow_4_step
                0x00000000c0d0c6c8       0x10 obj/ui_flow.o
                0x00000000c0d0c6c8                ux_idle_flow_4_step
 .rodata.ux_idle_flow
                0x00000000c0d0c6d8       0x18 obj/ui_flow.o
                0x00000000c0d0c6d8                ux_idle_flow
 .rodata.ux_settings_flow_1_step_validate_step
                0x00000000c0d0c6f0       0x10 obj/ui_flow.o
                0x00000000c0d0c6f0                ux_settings_flow_1_step_validate_step
 .rodata.ux_settings_flow_1_step_validate
                0x00000000c0d0c700        0x8 obj/ui_flow.o
                0x00000000c0d0c700                ux_settings_flow_1_step_validate
 .rodata.ux_settings_flow_1_step_val
                0x00000000c0d0c708        0x8 obj/ui_flow.o
                0x00000000c0d0c708                ux_settings_flow_1_step_val
 .rodata.ux_settings_flow_1_step
                0x00000000c0d0c710       0x10 obj/ui_flow.o
                0x00000000c0d0c710                ux_settings_flow_1_step
 .rodata.ux_settings_flow_2_step_validate_step
                0x00000000c0d0c720       0x10 obj/ui_flow.o
                0x00000000c0d0c720                ux_settings_flow_2_step_validate_step
 .rodata.ux_settings_flow_2_step_validate
                0x00000000c0d0c730        0x8 obj/ui_flow.o
                0x00000000c0d0c730                ux_settings_flow_2_step_validate
 .rodata.ux_settings_flow_2_step_val
                0x00000000c0d0c738        0x8 obj/ui_flow.o
                0x00000000c0d0c738                ux_settings_flow_2_step_val
 .rodata.ux_settings_flow_2_step
                0x00000000c0d0c740       0x10 obj/ui_flow.o
                0x00000000c0d0c740                ux_settings_flow_2_step
 .rodata.ux_settings_flow_3_step_validate_step
                0x00000000c0d0c750       0x10 obj/ui_flow.o
                0x00000000c0d0c750                ux_settings_flow_3_step_validate_step
 .rodata.ux_settings_flow_3_step_validate
                0x00000000c0d0c760        0x8 obj/ui_flow.o
                0x00000000c0d0c760                ux_settings_flow_3_step_validate
 .rodata.ux_settings_flow_3_step_val
                0x00000000c0d0c768        0x8 obj/ui_flow.o
                0x00000000c0d0c768                ux_settings_flow_3_step_val
 .rodata.ux_settings_flow_3_step
                0x00000000c0d0c770       0x10 obj/ui_flow.o
                0x00000000c0d0c770                ux_settings_flow_3_step
 .rodata.ux_settings_flow
                0x00000000c0d0c780       0x10 obj/ui_flow.o
                0x00000000c0d0c780                ux_settings_flow
 .rodata.str1.1
                0x00000000c0d0c790       0x17 obj/ui_flow_getPublicKey.o
                                         0x26 (size before relaxing)
 *fill*         0x00000000c0d0c7a7        0x1 00
 .rodata.ux_display_public_flow_1_step_val
                0x00000000c0d0c7a8        0xc obj/ui_flow_getPublicKey.o
                0x00000000c0d0c7a8                ux_display_public_flow_1_step_val
 .rodata.ux_display_public_flow_1_step
                0x00000000c0d0c7b4       0x10 obj/ui_flow_getPublicKey.o
                0x00000000c0d0c7b4                ux_display_public_flow_1_step
 .rodata.ux_display_public_flow_2_step_val
                0x00000000c0d0c7c4        0x8 obj/ui_flow_getPublicKey.o
                0x00000000c0d0c7c4                ux_display_public_flow_2_step_val
 .rodata.ux_display_public_flow_2_step
                0x00000000c0d0c7cc       0x10 obj/ui_flow_getPublicKey.o
                0x00000000c0d0c7cc                ux_display_public_flow_2_step
 .rodata.ux_display_public_flow_3_step_validate_step
                0x00000000c0d0c7dc       0x10 obj/ui_flow_getPublicKey.o
                0x00000000c0d0c7dc                ux_display_public_flow_3_step_validate_step
 .rodata.ux_display_public_flow_3_step_validate
                0x00000000c0d0c7ec        0x8 obj/ui_flow_getPublicKey.o
                0x00000000c0d0c7ec                ux_display_public_flow_3_step_validate
 .rodata.ux_display_public_flow_3_step_val
                0x00000000c0d0c7f4        0x8 obj/ui_flow_getPublicKey.o
                0x00000000c0d0c7f4                ux_display_public_flow_3_step_val
 .rodata.ux_display_public_flow_3_step
                0x00000000c0d0c7fc       0x10 obj/ui_flow_getPublicKey.o
                0x00000000c0d0c7fc                ux_display_public_flow_3_step
 .rodata.ux_display_public_flow_4_step_validate_step
                0x00000000c0d0c80c       0x10 obj/ui_flow_getPublicKey.o
                0x00000000c0d0c80c                ux_display_public_flow_4_step_validate_step
 .rodata.ux_display_public_flow_4_step_validate
                0x00000000c0d0c81c        0x8 obj/ui_flow_getPublicKey.o
                0x00000000c0d0c81c                ux_display_public_flow_4_step_validate
 .rodata.ux_display_public_flow_4_step_val
                0x00000000c0d0c824        0x8 obj/ui_flow_getPublicKey.o
                0x00000000c0d0c824                ux_display_public_flow_4_step_val
 .rodata.ux_display_public_flow_4_step
                0x00000000c0d0c82c       0x10 obj/ui_flow_getPublicKey.o
                0x00000000c0d0c82c                ux_display_public_flow_4_step
 .rodata.ux_display_public_flow
                0x00000000c0d0c83c       0x14 obj/ui_flow_getPublicKey.o
                0x00000000c0d0c83c                ux_display_public_flow
 .rodata.str1.1
                0x00000000c0d0c850       0x1e obj/ui_flow_signMessage.o
                                         0x2b (size before relaxing)
 *fill*         0x00000000c0d0c86e        0x2 00
 .rodata.ux_sign_flow_1_step_val
                0x00000000c0d0c870        0xc obj/ui_flow_signMessage.o
                0x00000000c0d0c870                ux_sign_flow_1_step_val
 .rodata.ux_sign_flow_1_step
                0x00000000c0d0c87c       0x10 obj/ui_flow_signMessage.o
                0x00000000c0d0c87c                ux_sign_flow_1_step
 .rodata.ux_sign_flow_2_step_val
                0x00000000c0d0c88c        0x8 obj/ui_flow_signMessage.o
                0x00000000c0d0c88c                ux_sign_flow_2_step_val
 .rodata.ux_sign_flow_2_step
                0x00000000c0d0c894       0x10 obj/ui_flow_signMessage.o
                0x00000000c0d0c894                ux_sign_flow_2_step
 .rodata.ux_sign_flow_3_step_validate_step
                0x00000000c0d0c8a4       0x10 obj/ui_flow_signMessage.o
                0x00000000c0d0c8a4                ux_sign_flow_3_step_validate_step
 .rodata.ux_sign_flow_3_step_validate
                0x00000000c0d0c8b4        0x8 obj/ui_flow_signMessage.o
                0x00000000c0d0c8b4                ux_sign_flow_3_step_validate
 .rodata.ux_sign_flow_3_step_val
                0x00000000c0d0c8bc        0xc obj/ui_flow_signMessage.o
                0x00000000c0d0c8bc                ux_sign_flow_3_step_val
 .rodata.ux_sign_flow_3_step
                0x00000000c0d0c8c8       0x10 obj/ui_flow_signMessage.o
                0x00000000c0d0c8c8                ux_sign_flow_3_step
 .rodata.ux_sign_flow_4_step_validate_step
                0x00000000c0d0c8d8       0x10 obj/ui_flow_signMessage.o
                0x00000000c0d0c8d8                ux_sign_flow_4_step_validate_step
 .rodata.ux_sign_flow_4_step_validate
                0x00000000c0d0c8e8        0x8 obj/ui_flow_signMessage.o
                0x00000000c0d0c8e8                ux_sign_flow_4_step_validate
 .rodata.ux_sign_flow_4_step_val
                0x00000000c0d0c8f0        0xc obj/ui_flow_signMessage.o
                0x00000000c0d0c8f0                ux_sign_flow_4_step_val
 .rodata.ux_sign_flow_4_step
                0x00000000c0d0c8fc       0x10 obj/ui_flow_signMessage.o
                0x00000000c0d0c8fc                ux_sign_flow_4_step
 .rodata.ux_sign_flow
                0x00000000c0d0c90c       0x14 obj/ui_flow_signMessage.o
                0x00000000c0d0c90c                ux_sign_flow
 .rodata.str1.1
                0x00000000c0d0c920       0x1a obj/ui_flow_signMessage712.o
                                         0x4c (size before relaxing)
 *fill*         0x00000000c0d0c93a        0x2 00
 .rodata.ux_sign_712_v0_flow_1_step_val
                0x00000000c0d0c93c        0xc obj/ui_flow_signMessage712.o
                0x00000000c0d0c93c                ux_sign_712_v0_flow_1_step_val
 .rodata.ux_sign_712_v0_flow_1_step
                0x00000000c0d0c948       0x10 obj/ui_flow_signMessage712.o
                0x00000000c0d0c948                ux_sign_712_v0_flow_1_step
 .rodata.ux_sign_712_v0_flow_2_step_val
                0x00000000c0d0c958        0x8 obj/ui_flow_signMessage712.o
                0x00000000c0d0c958                ux_sign_712_v0_flow_2_step_val
 .rodata.ux_sign_712_v0_flow_2_step
                0x00000000c0d0c960       0x10 obj/ui_flow_signMessage712.o
                0x00000000c0d0c960                ux_sign_712_v0_flow_2_step
 .rodata.ux_sign_712_v0_flow_3_step_val
                0x00000000c0d0c970        0x8 obj/ui_flow_signMessage712.o
                0x00000000c0d0c970                ux_sign_712_v0_flow_3_step_val
 .rodata.ux_sign_712_v0_flow_3_step
                0x00000000c0d0c978       0x10 obj/ui_flow_signMessage712.o
                0x00000000c0d0c978                ux_sign_712_v0_flow_3_step
 .rodata.ux_sign_712_v0_flow_4_step_validate_step
                0x00000000c0d0c988       0x10 obj/ui_flow_signMessage712.o
                0x00000000c0d0c988                ux_sign_712_v0_flow_4_step_validate_step
 .rodata.ux_sign_712_v0_flow_4_step_validate
                0x00000000c0d0c998        0x8 obj/ui_flow_signMessage712.o
                0x00000000c0d0c998                ux_sign_712_v0_flow_4_step_validate
 .rodata.ux_sign_712_v0_flow_4_step_val
                0x00000000c0d0c9a0        0xc obj/ui_flow_signMessage712.o
                0x00000000c0d0c9a0                ux_sign_712_v0_flow_4_step_val
 .rodata.ux_sign_712_v0_flow_4_step
                0x00000000c0d0c9ac       0x10 obj/ui_flow_signMessage712.o
                0x00000000c0d0c9ac                ux_sign_712_v0_flow_4_step
 .rodata.ux_sign_712_v0_flow_5_step_validate_step
                0x00000000c0d0c9bc       0x10 obj/ui_flow_signMessage712.o
                0x00000000c0d0c9bc                ux_sign_712_v0_flow_5_step_validate_step
 .rodata.ux_sign_712_v0_flow_5_step_validate
                0x00000000c0d0c9cc        0x8 obj/ui_flow_signMessage712.o
                0x00000000c0d0c9cc                ux_sign_712_v0_flow_5_step_validate
 .rodata.ux_sign_712_v0_flow_5_step_val
                0x00000000c0d0c9d4        0xc obj/ui_flow_signMessage712.o
                0x00000000c0d0c9d4                ux_sign_712_v0_flow_5_step_val
 .rodata.ux_sign_712_v0_flow_5_step
                0x00000000c0d0c9e0       0x10 obj/ui_flow_signMessage712.o
                0x00000000c0d0c9e0                ux_sign_712_v0_flow_5_step
 .rodata.ux_sign_712_v0_flow
                0x00000000c0d0c9f0       0x18 obj/ui_flow_signMessage712.o
                0x00000000c0d0c9f0                ux_sign_712_v0_flow
 .rodata.str1.1
                0x00000000c0d0ca08       0x35 obj/ui_flow_signTx.o
                                         0x7a (size before relaxing)
 *fill*         0x00000000c0d0ca3d        0x3 00
 .rodata.ux_confirm_selector_flow_1_step_val
                0x00000000c0d0ca40        0xc obj/ui_flow_signTx.o
                0x00000000c0d0ca40                ux_confirm_selector_flow_1_step_val
 .rodata.ux_confirm_selector_flow_1_step
                0x00000000c0d0ca4c       0x10 obj/ui_flow_signTx.o
                0x00000000c0d0ca4c                ux_confirm_selector_flow_1_step
 .rodata.ux_confirm_selector_flow_2_step_val
                0x00000000c0d0ca5c        0x8 obj/ui_flow_signTx.o
                0x00000000c0d0ca5c                ux_confirm_selector_flow_2_step_val
 .rodata.ux_confirm_selector_flow_2_step
                0x00000000c0d0ca64       0x10 obj/ui_flow_signTx.o
                0x00000000c0d0ca64                ux_confirm_selector_flow_2_step
 .rodata.ux_confirm_selector_flow_3_step_validate_step
                0x00000000c0d0ca74       0x10 obj/ui_flow_signTx.o
                0x00000000c0d0ca74                ux_confirm_selector_flow_3_step_validate_step
 .rodata.ux_confirm_selector_flow_3_step_validate
                0x00000000c0d0ca84        0x8 obj/ui_flow_signTx.o
                0x00000000c0d0ca84                ux_confirm_selector_flow_3_step_validate
 .rodata.ux_confirm_selector_flow_3_step_val
                0x00000000c0d0ca8c        0x8 obj/ui_flow_signTx.o
                0x00000000c0d0ca8c                ux_confirm_selector_flow_3_step_val
 .rodata.ux_confirm_selector_flow_3_step
                0x00000000c0d0ca94       0x10 obj/ui_flow_signTx.o
                0x00000000c0d0ca94                ux_confirm_selector_flow_3_step
 .rodata.ux_confirm_selector_flow_4_step_validate_step
                0x00000000c0d0caa4       0x10 obj/ui_flow_signTx.o
                0x00000000c0d0caa4                ux_confirm_selector_flow_4_step_validate_step
 .rodata.ux_confirm_selector_flow_4_step_validate
                0x00000000c0d0cab4        0x8 obj/ui_flow_signTx.o
                0x00000000c0d0cab4                ux_confirm_selector_flow_4_step_validate
 .rodata.ux_confirm_selector_flow_4_step_val
                0x00000000c0d0cabc        0x8 obj/ui_flow_signTx.o
                0x00000000c0d0cabc                ux_confirm_selector_flow_4_step_val
 .rodata.ux_confirm_selector_flow_4_step
                0x00000000c0d0cac4       0x10 obj/ui_flow_signTx.o
                0x00000000c0d0cac4                ux_confirm_selector_flow_4_step
 .rodata.ux_confirm_selector_flow
                0x00000000c0d0cad4       0x14 obj/ui_flow_signTx.o
                0x00000000c0d0cad4                ux_confirm_selector_flow
 .rodata.ux_confirm_parameter_flow_1_step_val
                0x00000000c0d0cae8        0xc obj/ui_flow_signTx.o
                0x00000000c0d0cae8                ux_confirm_parameter_flow_1_step_val
 .rodata.ux_confirm_parameter_flow_1_step
                0x00000000c0d0caf4       0x10 obj/ui_flow_signTx.o
                0x00000000c0d0caf4                ux_confirm_parameter_flow_1_step
 .rodata.ux_confirm_parameter_flow_2_step_val
                0x00000000c0d0cb04        0x8 obj/ui_flow_signTx.o
                0x00000000c0d0cb04                ux_confirm_parameter_flow_2_step_val
 .rodata.ux_confirm_parameter_flow_2_step
                0x00000000c0d0cb0c       0x10 obj/ui_flow_signTx.o
                0x00000000c0d0cb0c                ux_confirm_parameter_flow_2_step
 .rodata.ux_confirm_parameter_flow_3_step_validate_step
                0x00000000c0d0cb1c       0x10 obj/ui_flow_signTx.o
                0x00000000c0d0cb1c                ux_confirm_parameter_flow_3_step_validate_step
 .rodata.ux_confirm_parameter_flow_3_step_validate
                0x00000000c0d0cb2c        0x8 obj/ui_flow_signTx.o
                0x00000000c0d0cb2c                ux_confirm_parameter_flow_3_step_validate
 .rodata.ux_confirm_parameter_flow_3_step_val
                0x00000000c0d0cb34        0x8 obj/ui_flow_signTx.o
                0x00000000c0d0cb34                ux_confirm_parameter_flow_3_step_val
 .rodata.ux_confirm_parameter_flow_3_step
                0x00000000c0d0cb3c       0x10 obj/ui_flow_signTx.o
                0x00000000c0d0cb3c                ux_confirm_parameter_flow_3_step
 .rodata.ux_confirm_parameter_flow_4_step_validate_step
                0x00000000c0d0cb4c       0x10 obj/ui_flow_signTx.o
                0x00000000c0d0cb4c                ux_confirm_parameter_flow_4_step_validate_step
 .rodata.ux_confirm_parameter_flow_4_step_validate
                0x00000000c0d0cb5c        0x8 obj/ui_flow_signTx.o
                0x00000000c0d0cb5c                ux_confirm_parameter_flow_4_step_validate
 .rodata.ux_confirm_parameter_flow_4_step_val
                0x00000000c0d0cb64        0x8 obj/ui_flow_signTx.o
                0x00000000c0d0cb64                ux_confirm_parameter_flow_4_step_val
 .rodata.ux_confirm_parameter_flow_4_step
                0x00000000c0d0cb6c       0x10 obj/ui_flow_signTx.o
                0x00000000c0d0cb6c                ux_confirm_parameter_flow_4_step
 .rodata.ux_confirm_parameter_flow
                0x00000000c0d0cb7c       0x14 obj/ui_flow_signTx.o
                0x00000000c0d0cb7c                ux_confirm_parameter_flow
 .rodata.ux_approval_tx_1_step_val
                0x00000000c0d0cb90        0xc obj/ui_flow_signTx.o
                0x00000000c0d0cb90                ux_approval_tx_1_step_val
 .rodata.ux_approval_tx_1_step
                0x00000000c0d0cb9c       0x10 obj/ui_flow_signTx.o
                0x00000000c0d0cb9c                ux_approval_tx_1_step
 .rodata.ux_approval_tx_2_step_val
                0x00000000c0d0cbac        0x8 obj/ui_flow_signTx.o
                0x00000000c0d0cbac                ux_approval_tx_2_step_val
 .rodata.ux_approval_tx_2_step
                0x00000000c0d0cbb4       0x10 obj/ui_flow_signTx.o
                0x00000000c0d0cbb4                ux_approval_tx_2_step
 .rodata.ux_approval_tx_3_step_val
                0x00000000c0d0cbc4        0x8 obj/ui_flow_signTx.o
                0x00000000c0d0cbc4                ux_approval_tx_3_step_val
 .rodata.ux_approval_tx_3_step
                0x00000000c0d0cbcc       0x10 obj/ui_flow_signTx.o
                0x00000000c0d0cbcc                ux_approval_tx_3_step
 .rodata.ux_approval_tx_4_step_val
                0x00000000c0d0cbdc        0x8 obj/ui_flow_signTx.o
                0x00000000c0d0cbdc                ux_approval_tx_4_step_val
 .rodata.ux_approval_tx_4_step
                0x00000000c0d0cbe4       0x10 obj/ui_flow_signTx.o
                0x00000000c0d0cbe4                ux_approval_tx_4_step
 .rodata.ux_approval_tx_5_step_validate_step
                0x00000000c0d0cbf4       0x10 obj/ui_flow_signTx.o
                0x00000000c0d0cbf4                ux_approval_tx_5_step_validate_step
 .rodata.ux_approval_tx_5_step_validate
                0x00000000c0d0cc04        0x8 obj/ui_flow_signTx.o
                0x00000000c0d0cc04                ux_approval_tx_5_step_validate
 .rodata.ux_approval_tx_5_step_val
                0x00000000c0d0cc0c        0xc obj/ui_flow_signTx.o
                0x00000000c0d0cc0c                ux_approval_tx_5_step_val
 .rodata.ux_approval_tx_5_step
                0x00000000c0d0cc18       0x10 obj/ui_flow_signTx.o
                0x00000000c0d0cc18                ux_approval_tx_5_step
 .rodata.ux_approval_tx_6_step_validate_step
                0x00000000c0d0cc28       0x10 obj/ui_flow_signTx.o
                0x00000000c0d0cc28                ux_approval_tx_6_step_validate_step
 .rodata.ux_approval_tx_6_step_validate
                0x00000000c0d0cc38        0x8 obj/ui_flow_signTx.o
                0x00000000c0d0cc38                ux_approval_tx_6_step_validate
 .rodata.ux_approval_tx_6_step_val
                0x00000000c0d0cc40        0x8 obj/ui_flow_signTx.o
                0x00000000c0d0cc40                ux_approval_tx_6_step_val
 .rodata.ux_approval_tx_6_step
                0x00000000c0d0cc48       0x10 obj/ui_flow_signTx.o
                0x00000000c0d0cc48                ux_approval_tx_6_step
 .rodata.ux_approval_tx_data_warning_step_val
                0x00000000c0d0cc58        0xc obj/ui_flow_signTx.o
                0x00000000c0d0cc58                ux_approval_tx_data_warning_step_val
 .rodata.ux_approval_tx_data_warning_step
                0x00000000c0d0cc64       0x10 obj/ui_flow_signTx.o
                0x00000000c0d0cc64                ux_approval_tx_data_warning_step
 .rodata.ux_approval_tx_flow
                0x00000000c0d0cc74       0x1c obj/ui_flow_signTx.o
                0x00000000c0d0cc74                ux_approval_tx_flow
 .rodata.ux_approval_tx_data_warning_flow
                0x00000000c0d0cc90       0x20 obj/ui_flow_signTx.o
                0x00000000c0d0cc90                ux_approval_tx_data_warning_flow
 .rodata.str1.1
                0x00000000c0d0ccb0       0x14 obj/ui_flow_stark_getPublicKey.o
                                         0x2a (size before relaxing)
 .rodata.ux_display_stark_public_flow_1_step_val
                0x00000000c0d0ccc4        0xc obj/ui_flow_stark_getPublicKey.o
                0x00000000c0d0ccc4                ux_display_stark_public_flow_1_step_val
 .rodata.ux_display_stark_public_flow_1_step
                0x00000000c0d0ccd0       0x10 obj/ui_flow_stark_getPublicKey.o
                0x00000000c0d0ccd0                ux_display_stark_public_flow_1_step
 .rodata.ux_display_stark_public_flow_2_step_val
                0x00000000c0d0cce0        0x8 obj/ui_flow_stark_getPublicKey.o
                0x00000000c0d0cce0                ux_display_stark_public_flow_2_step_val
 .rodata.ux_display_stark_public_flow_2_step
                0x00000000c0d0cce8       0x10 obj/ui_flow_stark_getPublicKey.o
                0x00000000c0d0cce8                ux_display_stark_public_flow_2_step
 .rodata.ux_display_stark_public_flow_3_step_validate_step
                0x00000000c0d0ccf8       0x10 obj/ui_flow_stark_getPublicKey.o
                0x00000000c0d0ccf8                ux_display_stark_public_flow_3_step_validate_step
 .rodata.ux_display_stark_public_flow_3_step_validate
                0x00000000c0d0cd08        0x8 obj/ui_flow_stark_getPublicKey.o
                0x00000000c0d0cd08                ux_display_stark_public_flow_3_step_validate
 .rodata.ux_display_stark_public_flow_3_step_val
                0x00000000c0d0cd10        0x8 obj/ui_flow_stark_getPublicKey.o
                0x00000000c0d0cd10                ux_display_stark_public_flow_3_step_val
 .rodata.ux_display_stark_public_flow_3_step
                0x00000000c0d0cd18       0x10 obj/ui_flow_stark_getPublicKey.o
                0x00000000c0d0cd18                ux_display_stark_public_flow_3_step
 .rodata.ux_display_stark_public_flow_4_step_validate_step
                0x00000000c0d0cd28       0x10 obj/ui_flow_stark_getPublicKey.o
                0x00000000c0d0cd28                ux_display_stark_public_flow_4_step_validate_step
 .rodata.ux_display_stark_public_flow_4_step_validate
                0x00000000c0d0cd38        0x8 obj/ui_flow_stark_getPublicKey.o
                0x00000000c0d0cd38                ux_display_stark_public_flow_4_step_validate
 .rodata.ux_display_stark_public_flow_4_step_val
                0x00000000c0d0cd40        0x8 obj/ui_flow_stark_getPublicKey.o
                0x00000000c0d0cd40                ux_display_stark_public_flow_4_step_val
 .rodata.ux_display_stark_public_flow_4_step
                0x00000000c0d0cd48       0x10 obj/ui_flow_stark_getPublicKey.o
                0x00000000c0d0cd48                ux_display_stark_public_flow_4_step
 .rodata.ux_display_stark_public_flow
                0x00000000c0d0cd58       0x14 obj/ui_flow_stark_getPublicKey.o
                0x00000000c0d0cd58                ux_display_stark_public_flow
 .rodata.str1.1
                0x00000000c0d0cd6c       0x77 obj/ui_flow_stark_sign.o
                                         0xba (size before relaxing)
 *fill*         0x00000000c0d0cde3        0x1 00
 .rodata.ux_stark_limit_order_1_step_val
                0x00000000c0d0cde4        0xc obj/ui_flow_stark_sign.o
                0x00000000c0d0cde4                ux_stark_limit_order_1_step_val
 .rodata.ux_stark_limit_order_1_step
                0x00000000c0d0cdf0       0x10 obj/ui_flow_stark_sign.o
                0x00000000c0d0cdf0                ux_stark_limit_order_1_step
 .rodata.ux_stark_limit_order_2_step_val
                0x00000000c0d0ce00        0x8 obj/ui_flow_stark_sign.o
                0x00000000c0d0ce00                ux_stark_limit_order_2_step_val
 .rodata.ux_stark_limit_order_2_step
                0x00000000c0d0ce08       0x10 obj/ui_flow_stark_sign.o
                0x00000000c0d0ce08                ux_stark_limit_order_2_step
 .rodata.ux_stark_limit_order_3_step_val
                0x00000000c0d0ce18        0x8 obj/ui_flow_stark_sign.o
                0x00000000c0d0ce18                ux_stark_limit_order_3_step_val
 .rodata.ux_stark_limit_order_3_step
                0x00000000c0d0ce20       0x10 obj/ui_flow_stark_sign.o
                0x00000000c0d0ce20                ux_stark_limit_order_3_step
 .rodata.ux_stark_limit_order_4_step_val
                0x00000000c0d0ce30        0x8 obj/ui_flow_stark_sign.o
                0x00000000c0d0ce30                ux_stark_limit_order_4_step_val
 .rodata.ux_stark_limit_order_4_step
                0x00000000c0d0ce38       0x10 obj/ui_flow_stark_sign.o
                0x00000000c0d0ce38                ux_stark_limit_order_4_step
 .rodata.ux_stark_limit_order_5_step_val
                0x00000000c0d0ce48        0x8 obj/ui_flow_stark_sign.o
                0x00000000c0d0ce48                ux_stark_limit_order_5_step_val
 .rodata.ux_stark_limit_order_5_step
                0x00000000c0d0ce50       0x10 obj/ui_flow_stark_sign.o
                0x00000000c0d0ce50                ux_stark_limit_order_5_step
 .rodata.ux_stark_limit_order_6_step_val
                0x00000000c0d0ce60        0x8 obj/ui_flow_stark_sign.o
                0x00000000c0d0ce60                ux_stark_limit_order_6_step_val
 .rodata.ux_stark_limit_order_6_step
                0x00000000c0d0ce68       0x10 obj/ui_flow_stark_sign.o
                0x00000000c0d0ce68                ux_stark_limit_order_6_step
 .rodata.ux_stark_limit_order_7_step_validate_step
                0x00000000c0d0ce78       0x10 obj/ui_flow_stark_sign.o
                0x00000000c0d0ce78                ux_stark_limit_order_7_step_validate_step
 .rodata.ux_stark_limit_order_7_step_validate
                0x00000000c0d0ce88        0x8 obj/ui_flow_stark_sign.o
                0x00000000c0d0ce88                ux_stark_limit_order_7_step_validate
 .rodata.ux_stark_limit_order_7_step_val
                0x00000000c0d0ce90        0xc obj/ui_flow_stark_sign.o
                0x00000000c0d0ce90                ux_stark_limit_order_7_step_val
 .rodata.ux_stark_limit_order_7_step
                0x00000000c0d0ce9c       0x10 obj/ui_flow_stark_sign.o
                0x00000000c0d0ce9c                ux_stark_limit_order_7_step
 .rodata.ux_stark_limit_order_8_step_validate_step
                0x00000000c0d0ceac       0x10 obj/ui_flow_stark_sign.o
                0x00000000c0d0ceac                ux_stark_limit_order_8_step_validate_step
 .rodata.ux_stark_limit_order_8_step_validate
                0x00000000c0d0cebc        0x8 obj/ui_flow_stark_sign.o
                0x00000000c0d0cebc                ux_stark_limit_order_8_step_validate
 .rodata.ux_stark_limit_order_8_step_val
                0x00000000c0d0cec4        0x8 obj/ui_flow_stark_sign.o
                0x00000000c0d0cec4                ux_stark_limit_order_8_step_val
 .rodata.ux_stark_limit_order_8_step
                0x00000000c0d0cecc       0x10 obj/ui_flow_stark_sign.o
                0x00000000c0d0cecc                ux_stark_limit_order_8_step
 .rodata.ux_stark_limit_order_flow
                0x00000000c0d0cedc       0x24 obj/ui_flow_stark_sign.o
                0x00000000c0d0cedc                ux_stark_limit_order_flow
 .rodata.ux_stark_transfer_1_step_val
                0x00000000c0d0cf00        0xc obj/ui_flow_stark_sign.o
                0x00000000c0d0cf00                ux_stark_transfer_1_step_val
 .rodata.ux_stark_transfer_1_step
                0x00000000c0d0cf0c       0x10 obj/ui_flow_stark_sign.o
                0x00000000c0d0cf0c                ux_stark_transfer_1_step
 .rodata.ux_stark_transfer_2_step_val
                0x00000000c0d0cf1c        0x8 obj/ui_flow_stark_sign.o
                0x00000000c0d0cf1c                ux_stark_transfer_2_step_val
 .rodata.ux_stark_transfer_2_step
                0x00000000c0d0cf24       0x10 obj/ui_flow_stark_sign.o
                0x00000000c0d0cf24                ux_stark_transfer_2_step
 .rodata.ux_stark_self_transfer_2_step_val
                0x00000000c0d0cf34        0x8 obj/ui_flow_stark_sign.o
                0x00000000c0d0cf34                ux_stark_self_transfer_2_step_val
 .rodata.ux_stark_self_transfer_2_step
                0x00000000c0d0cf3c       0x10 obj/ui_flow_stark_sign.o
                0x00000000c0d0cf3c                ux_stark_self_transfer_2_step
 .rodata.ux_stark_conditional_transfer_2_step_val
                0x00000000c0d0cf4c        0x8 obj/ui_flow_stark_sign.o
                0x00000000c0d0cf4c                ux_stark_conditional_transfer_2_step_val
 .rodata.ux_stark_conditional_transfer_2_step
                0x00000000c0d0cf54       0x10 obj/ui_flow_stark_sign.o
                0x00000000c0d0cf54                ux_stark_conditional_transfer_2_step
 .rodata.ux_stark_self_conditional_transfer_2_step_val
                0x00000000c0d0cf64        0x8 obj/ui_flow_stark_sign.o
                0x00000000c0d0cf64                ux_stark_self_conditional_transfer_2_step_val
 .rodata.ux_stark_self_conditional_transfer_2_step
                0x00000000c0d0cf6c       0x10 obj/ui_flow_stark_sign.o
                0x00000000c0d0cf6c                ux_stark_self_conditional_transfer_2_step
 .rodata.ux_stark_transfer_3_step_val
                0x00000000c0d0cf7c        0x8 obj/ui_flow_stark_sign.o
                0x00000000c0d0cf7c                ux_stark_transfer_3_step_val
 .rodata.ux_stark_transfer_3_step
                0x00000000c0d0cf84       0x10 obj/ui_flow_stark_sign.o
                0x00000000c0d0cf84                ux_stark_transfer_3_step
 .rodata.ux_stark_transfer_4_step_val
                0x00000000c0d0cf94        0x8 obj/ui_flow_stark_sign.o
                0x00000000c0d0cf94                ux_stark_transfer_4_step_val
 .rodata.ux_stark_transfer_4_step
                0x00000000c0d0cf9c       0x10 obj/ui_flow_stark_sign.o
                0x00000000c0d0cf9c                ux_stark_transfer_4_step
 .rodata.ux_stark_transfer_5_step_val
                0x00000000c0d0cfac        0x8 obj/ui_flow_stark_sign.o
                0x00000000c0d0cfac                ux_stark_transfer_5_step_val
 .rodata.ux_stark_transfer_5_step
                0x00000000c0d0cfb4       0x10 obj/ui_flow_stark_sign.o
                0x00000000c0d0cfb4                ux_stark_transfer_5_step
 .rodata.ux_stark_transfer_6_step_validate_step
                0x00000000c0d0cfc4       0x10 obj/ui_flow_stark_sign.o
                0x00000000c0d0cfc4                ux_stark_transfer_6_step_validate_step
 .rodata.ux_stark_transfer_6_step_validate
                0x00000000c0d0cfd4        0x8 obj/ui_flow_stark_sign.o
                0x00000000c0d0cfd4                ux_stark_transfer_6_step_validate
 .rodata.ux_stark_transfer_6_step_val
                0x00000000c0d0cfdc        0xc obj/ui_flow_stark_sign.o
                0x00000000c0d0cfdc                ux_stark_transfer_6_step_val
 .rodata.ux_stark_transfer_6_step
                0x00000000c0d0cfe8       0x10 obj/ui_flow_stark_sign.o
                0x00000000c0d0cfe8                ux_stark_transfer_6_step
 .rodata.ux_stark_transfer_7_step_validate_step
                0x00000000c0d0cff8       0x10 obj/ui_flow_stark_sign.o
                0x00000000c0d0cff8                ux_stark_transfer_7_step_validate_step
 .rodata.ux_stark_transfer_7_step_validate
                0x00000000c0d0d008        0x8 obj/ui_flow_stark_sign.o
                0x00000000c0d0d008                ux_stark_transfer_7_step_validate
 .rodata.ux_stark_transfer_7_step_val
                0x00000000c0d0d010        0x8 obj/ui_flow_stark_sign.o
                0x00000000c0d0d010                ux_stark_transfer_7_step_val
 .rodata.ux_stark_transfer_7_step
                0x00000000c0d0d018       0x10 obj/ui_flow_stark_sign.o
                0x00000000c0d0d018                ux_stark_transfer_7_step
 .rodata.ux_stark_conditional_transfer_4_step_val
                0x00000000c0d0d028        0x8 obj/ui_flow_stark_sign.o
                0x00000000c0d0d028                ux_stark_conditional_transfer_4_step_val
 .rodata.ux_stark_conditional_transfer_4_step
                0x00000000c0d0d030       0x10 obj/ui_flow_stark_sign.o
                0x00000000c0d0d030                ux_stark_conditional_transfer_4_step
 .rodata.ux_stark_conditional_transfer_8_step_val
                0x00000000c0d0d040        0x8 obj/ui_flow_stark_sign.o
                0x00000000c0d0d040                ux_stark_conditional_transfer_8_step_val
 .rodata.ux_stark_conditional_transfer_8_step
                0x00000000c0d0d048       0x10 obj/ui_flow_stark_sign.o
                0x00000000c0d0d048                ux_stark_conditional_transfer_8_step
 .rodata.ux_stark_conditional_transfer_9_step_val
                0x00000000c0d0d058        0x8 obj/ui_flow_stark_sign.o
                0x00000000c0d0d058                ux_stark_conditional_transfer_9_step_val
 .rodata.ux_stark_conditional_transfer_9_step
                0x00000000c0d0d060       0x10 obj/ui_flow_stark_sign.o
                0x00000000c0d0d060                ux_stark_conditional_transfer_9_step
 .rodata.ux_stark_transfer_flow
                0x00000000c0d0d070       0x20 obj/ui_flow_stark_sign.o
                0x00000000c0d0d070                ux_stark_transfer_flow
 .rodata.ux_stark_self_transfer_flow
                0x00000000c0d0d090       0x1c obj/ui_flow_stark_sign.o
                0x00000000c0d0d090                ux_stark_self_transfer_flow
 .rodata.ux_stark_transfer_conditional_flow
                0x00000000c0d0d0ac       0x28 obj/ui_flow_stark_sign.o
                0x00000000c0d0d0ac                ux_stark_transfer_conditional_flow
 .rodata.ux_stark_self_transfer_conditional_flow
                0x00000000c0d0d0d4       0x24 obj/ui_flow_stark_sign.o
                0x00000000c0d0d0d4                ux_stark_self_transfer_conditional_flow
 .rodata.str1.1
                0x00000000c0d0d0f8       0x24 obj/ui_flow_stark_unsafe_sign.o
                                         0x42 (size before relaxing)
 .rodata.ux_stark_unsafe_sign_1_step_val
                0x00000000c0d0d11c        0xc obj/ui_flow_stark_unsafe_sign.o
                0x00000000c0d0d11c                ux_stark_unsafe_sign_1_step_val
 .rodata.ux_stark_unsafe_sign_1_step
                0x00000000c0d0d128       0x10 obj/ui_flow_stark_unsafe_sign.o
                0x00000000c0d0d128                ux_stark_unsafe_sign_1_step
 .rodata.ux_stark_unsafe_sign_2_step_val
                0x00000000c0d0d138        0x8 obj/ui_flow_stark_unsafe_sign.o
                0x00000000c0d0d138                ux_stark_unsafe_sign_2_step_val
 .rodata.ux_stark_unsafe_sign_2_step
                0x00000000c0d0d140       0x10 obj/ui_flow_stark_unsafe_sign.o
                0x00000000c0d0d140                ux_stark_unsafe_sign_2_step
 .rodata.ux_stark_unsafe_sign_3_step_val
                0x00000000c0d0d150        0x8 obj/ui_flow_stark_unsafe_sign.o
                0x00000000c0d0d150                ux_stark_unsafe_sign_3_step_val
 .rodata.ux_stark_unsafe_sign_3_step
                0x00000000c0d0d158       0x10 obj/ui_flow_stark_unsafe_sign.o
                0x00000000c0d0d158                ux_stark_unsafe_sign_3_step
 .rodata.ux_stark_unsafe_sign_4_step_validate_step
                0x00000000c0d0d168       0x10 obj/ui_flow_stark_unsafe_sign.o
                0x00000000c0d0d168                ux_stark_unsafe_sign_4_step_validate_step
 .rodata.ux_stark_unsafe_sign_4_step_validate
                0x00000000c0d0d178        0x8 obj/ui_flow_stark_unsafe_sign.o
                0x00000000c0d0d178                ux_stark_unsafe_sign_4_step_validate
 .rodata.ux_stark_unsafe_sign_4_step_val
                0x00000000c0d0d180        0xc obj/ui_flow_stark_unsafe_sign.o
                0x00000000c0d0d180                ux_stark_unsafe_sign_4_step_val
 .rodata.ux_stark_unsafe_sign_4_step
                0x00000000c0d0d18c       0x10 obj/ui_flow_stark_unsafe_sign.o
                0x00000000c0d0d18c                ux_stark_unsafe_sign_4_step
 .rodata.ux_stark_unsafe_sign_5_step_validate_step
                0x00000000c0d0d19c       0x10 obj/ui_flow_stark_unsafe_sign.o
                0x00000000c0d0d19c                ux_stark_unsafe_sign_5_step_validate_step
 .rodata.ux_stark_unsafe_sign_5_step_validate
                0x00000000c0d0d1ac        0x8 obj/ui_flow_stark_unsafe_sign.o
                0x00000000c0d0d1ac                ux_stark_unsafe_sign_5_step_validate
 .rodata.ux_stark_unsafe_sign_5_step_val
                0x00000000c0d0d1b4        0x8 obj/ui_flow_stark_unsafe_sign.o
                0x00000000c0d0d1b4                ux_stark_unsafe_sign_5_step_val
 .rodata.ux_stark_unsafe_sign_5_step
                0x00000000c0d0d1bc       0x10 obj/ui_flow_stark_unsafe_sign.o
                0x00000000c0d0d1bc                ux_stark_unsafe_sign_5_step
 .rodata.ux_stark_unsafe_sign_flow
                0x00000000c0d0d1cc       0x18 obj/ui_flow_stark_unsafe_sign.o
                0x00000000c0d0d1cc                ux_stark_unsafe_sign_flow
 .rodata.str1.1
                0x00000000c0d0d1e4       0x11 obj/uint256.o
 .rodata.USBD_HID_Desc_fido
                0x00000000c0d0d1e4        0x9 obj/usbd_impl.o
                0x00000000c0d0d1e4                USBD_HID_Desc_fido
 *fill*         0x00000000c0d0d1ed        0x3 00
 .rodata.USBD_HID_Desc
                0x00000000c0d0d1f0        0x9 obj/usbd_impl.o
                0x00000000c0d0d1f0                USBD_HID_Desc
 .rodata.HID_ReportDesc_fido
                0x00000000c0d0d1f9       0x22 obj/usbd_impl.o
 .rodata.HID_ReportDesc
                0x00000000c0d0d21b       0x22 obj/usbd_impl.o
 .rodata.C_usb_bos
                0x00000000c0d0d23d       0x39 obj/usbd_impl.o
                0x00000000c0d0d23d                C_usb_bos
 *fill*         0x00000000c0d0d276        0x2 00
 .rodata.HID_Desc
                0x00000000c0d0d278       0x20 obj/usbd_impl.o
                0x00000000c0d0d278                HID_Desc
 .rodata.C_winusb_string_descriptor
                0x00000000c0d0d298       0x12 obj/usbd_impl.o
 .rodata.C_winusb_guid
                0x00000000c0d0d2aa       0x92 obj/usbd_impl.o
 .rodata.C_winusb_request_descriptor
                0x00000000c0d0d33c       0xb2 obj/usbd_impl.o
 *fill*         0x00000000c0d0d3ee        0x2 00
 .rodata.USBD_HID
                0x00000000c0d0d3f0       0x38 obj/usbd_impl.o
 .rodata.USBD_U2F
                0x00000000c0d0d428       0x38 obj/usbd_impl.o
 .rodata.USBD_WEBUSB
                0x00000000c0d0d460       0x38 obj/usbd_impl.o
 .rodata.USBD_DeviceDesc
                0x00000000c0d0d498       0x12 obj/usbd_impl.o
 .rodata.USBD_LangIDDesc
                0x00000000c0d0d4aa        0x4 obj/usbd_impl.o
 .rodata.USBD_MANUFACTURER_STRING
                0x00000000c0d0d4ae        0xe obj/usbd_impl.o
 .rodata.USBD_PRODUCT_FS_STRING
                0x00000000c0d0d4bc        0xe obj/usbd_impl.o
 .rodata.USB_SERIAL_STRING
                0x00000000c0d0d4ca        0xa obj/usbd_impl.o
 .rodata.C_winusb_wcid
                0x00000000c0d0d4d4       0x28 obj/usbd_impl.o
 .rodata.USBD_CfgDesc
                0x00000000c0d0d4fc       0x60 obj/usbd_impl.o
 .rodata.USBD_DeviceQualifierDesc
                0x00000000c0d0d55c        0xa obj/usbd_impl.o
 .rodata.cst16  0x00000000c0d0d566       0x10 obj/utils.o
 .rodata.str1.1
                0x00000000c0d0d566       0x15 obj/utils.o
 *fill*         0x00000000c0d0d57b        0x1 00
 .rodata.ux_layout_bb_elements
                0x00000000c0d0d57c       0xa0 obj/ux_layout_bb.o
                0x00000000c0d0d57c                ux_layout_bb_elements
 .rodata.str1.1
                0x00000000c0d0d61c       0x14 obj/ux_layout_paging.o
                                         0x19 (size before relaxing)
 .rodata.ux_layout_pb_elements
                0x00000000c0d0d630       0xa0 obj/ux_layout_pb.o
                0x00000000c0d0d630                ux_layout_pb_elements
 .rodata.ux_layout_pbb_elements
                0x00000000c0d0d6d0       0xc0 obj/ux_layout_pbb.o
                0x00000000c0d0d6d0                ux_layout_pbb_elements
 *(.rodata.N[^_]*)
 .rodata.NFT_ASSET_ID_PREFIX
                0x00000000c0d0d790        0x5 obj/stark_utils.o
                0x00000000c0d0d798                . = ALIGN (0x4)
 *fill*         0x00000000c0d0d795        0x3 00
                0x00000000c0d0d798                _etext = .
                0x00000000c0d0d7c0                . = ALIGN (PAGE_SIZE)
 *fill*         0x00000000c0d0d798       0x28 00
                0x00000000c0d0d7c0                _nvram_data = .
 *(.bss.N_* .rodata.N_*)
 .rodata.N_storage_real
                0x00000000c0d0d7c0        0x3 obj/main.o
                0x00000000c0d0d7c0                N_storage_real
                0x00000000c0d0d800                . = ALIGN (PAGE_SIZE)
 *fill*         0x00000000c0d0d7c3       0x3d 00
                0x00000000c0d0d800                _envram_data = .
                0x00000000c0d0d800                _install_parameters = .
                0x00000000c0d0d800                _envram = .

.glue_7         0x00000000c0d0d800        0x0
 .glue_7        0x00000000c0d0d800        0x0 linker stubs

.glue_7t        0x00000000c0d0d800        0x0
 .glue_7t       0x00000000c0d0d800        0x0 linker stubs

.vfp11_veneer   0x00000000c0d0d800        0x0
 .vfp11_veneer  0x00000000c0d0d800        0x0 linker stubs

.v4_bx          0x00000000c0d0d800        0x0
 .v4_bx         0x00000000c0d0d800        0x0 linker stubs

.iplt           0x00000000c0d0d800        0x0
 .iplt          0x00000000c0d0d800        0x0 obj/base64.o

.data           0x00000000d0000000        0x0
                0x00000000d0000000                . = ALIGN (0x4)
                0x00000000d0000000                _data = .
 *(vtable)
 *(.data*)
                0x00000000d0000000                _edata = .

.igot.plt       0x00000000d0000000        0x0
 .igot.plt      0x00000000d0000000        0x0 obj/base64.o

.bss            0x0000000020001800      0xbf4
                0x0000000020001800                _bss = .
 *(.bss*)
 .bss.appState  0x0000000020001800        0x1 obj/main.o
                0x0000000020001800                appState
 *fill*         0x0000000020001801        0x3 00
 .bss.tmpCtx    0x0000000020001804       0x98 obj/main.o
                0x0000000020001804                tmpCtx
 .bss.called_from_swap
                0x000000002000189c        0x1 obj/main.o
                0x000000002000189c                called_from_swap
 .bss.quantumSet
                0x000000002000189d        0x1 obj/main.o
                0x000000002000189d                quantumSet
 *fill*         0x000000002000189e        0x2 00
 .bss.txContext
                0x00000000200018a0       0x3c obj/main.o
                0x00000000200018a0                txContext
 .bss.tmpContent
                0x00000000200018dc      0x124 obj/main.o
                0x00000000200018dc                tmpContent
 .bss.G_ux      0x0000000020001a00      0x100 obj/main.o
                0x0000000020001a00                G_ux
 .bss.G_io_seproxyhal_spi_buffer
                0x0000000020001b00       0x48 obj/main.o
                0x0000000020001b00                G_io_seproxyhal_spi_buffer
 .bss.G_ux_params
                0x0000000020001b48       0x98 obj/main.o
                0x0000000020001b48                G_ux_params
 .bss.chainConfig
                0x0000000020001be0        0x4 obj/main.o
                0x0000000020001be0                chainConfig
 .bss.dataContext
                0x0000000020001be4       0xe6 obj/main.o
                0x0000000020001be4                dataContext
 .bss.strings   0x0000000020001cca       0x8f obj/main.o
                0x0000000020001cca                strings
 *fill*         0x0000000020001d59        0x7 00
 .bss.global_sha3
                0x0000000020001d60      0x1a8 obj/main.o
                0x0000000020001d60                global_sha3
 .bss.dataPresent
                0x0000000020001f08        0x1 obj/main.o
                0x0000000020001f08                dataPresent
 .bss.G_io_apdu_buffer
                0x0000000020001f09      0x151 obj/os.o
                0x0000000020001f09                G_io_apdu_buffer
 *fill*         0x000000002000205a        0x2 00
 .bss.G_io_app  0x000000002000205c       0x18 obj/os_io_seproxyhal.o
                0x000000002000205c                G_io_app
 .bss.G_ux_os   0x0000000020002074        0x8 obj/os_io_seproxyhal.o
                0x0000000020002074                G_ux_os
 .bss.G_io_u2f  0x000000002000207c       0x44 obj/os_io_seproxyhal.o
                0x000000002000207c                G_io_u2f
 .bss.G_io_usb_ep_buffer
                0x00000000200020c0       0x40 obj/os_io_seproxyhal.o
                0x00000000200020c0                G_io_usb_ep_buffer
 .bss.G_io_usb_hid_sequence_number
                0x0000000020002100        0x4 obj/os_io_usb.o
                0x0000000020002100                G_io_usb_hid_sequence_number
 .bss.G_io_usb_hid_total_length
                0x0000000020002104        0x4 obj/os_io_usb.o
                0x0000000020002104                G_io_usb_hid_total_length
 .bss.G_io_usb_hid_remaining_length
                0x0000000020002108        0x4 obj/os_io_usb.o
                0x0000000020002108                G_io_usb_hid_remaining_length
 .bss.G_io_usb_hid_current_buffer
                0x000000002000210c        0x4 obj/os_io_usb.o
                0x000000002000210c                G_io_usb_hid_current_buffer
 .bss.G_io_usb_hid_channel
                0x0000000020002110        0x4 obj/os_io_usb.o
                0x0000000020002110                G_io_usb_hid_channel
 .bss.ep_in_stall
                0x0000000020002114        0x4 obj/usbd_conf.o
                0x0000000020002114                ep_in_stall
 .bss.ep_out_stall
                0x0000000020002118        0x4 obj/usbd_conf.o
                0x0000000020002118                ep_out_stall
 .bss.USBD_Device
                0x000000002000211c       0xd4 obj/usbd_core.o
                0x000000002000211c                USBD_Device
                0x00000000200021f0                _ebss = .
                0x00000000200021f0                . = ALIGN (0x4)
                0x00000000200021f0                app_stack_canary = .
                [!provide]                        PROVIDE (app_stack_canary = .)
                0x00000000200021f4                . = (. + 0x4)
 *fill*         0x00000000200021f0        0x4 00
                0x00000000200021f4                _stack_validation = .
                0x00000000200023f4                . = (_stack_validation + STACK_SIZE)
 *fill*         0x00000000200021f4      0x200 00
                0x0000000020002600                _stack = (ABSOLUTE (END_STACK) - STACK_SIZE)
                [!provide]                        PROVIDE (_stack = (ABSOLUTE (END_STACK) - STACK_SIZE))
                0x0000000020002800                _estack = ABSOLUTE (END_STACK)
                [!provide]                        PROVIDE (_estack = ABSOLUTE (END_STACK))

DEBUG           0x00000000d0000000        0x8
 libc.a(*)
 libm.a(*)
 libgcc.a(*)
 *(.ARM.exidx* .gnu.linkonce.armexidx.*)
 .ARM.exidx.text.Base64encode
                0x00000000d0000000        0x0 obj/base64.o
                                          0x8 (size before relaxing)
 .ARM.exidx.text.check_audited_app
                0x00000000d0000000        0x0 obj/checks.o
                                          0x8 (size before relaxing)
 .ARM.exidx.text.ui_audited_elements_button
                0x00000000d0000000        0x0 obj/checks.o
                                          0x8 (size before relaxing)
 .ARM.exidx.text.handleGetAppConfiguration
                0x00000000d0000000        0x0 obj/cmd_getAppConfiguration.o
                                          0x8 (size before relaxing)
 .ARM.exidx.text.handleGetPublicKey
                0x00000000d0000000        0x0 obj/cmd_getPublicKey.o
                                          0x8 (size before relaxing)
 .ARM.exidx.text.handleProvideErc20TokenInformation
                0x00000000d0000000        0x0 obj/cmd_provideTokenInfo.o
                                          0x8 (size before relaxing)
 .ARM.exidx.text.handleSignPersonalMessage
                0x00000000d0000000        0x0 obj/cmd_signMessage.o
                                          0x8 (size before relaxing)
 .ARM.exidx.text.handleSignEIP712Message
                0x00000000d0000000        0x0 obj/cmd_signMessage712.o
                                          0x8 (size before relaxing)
 .ARM.exidx.text.handleSign
                0x00000000d0000000        0x0 obj/cmd_signTx.o
                                          0x8 (size before relaxing)
 .ARM.exidx.text.handleStarkwareGetPublicKey
                0x00000000d0000000        0x0 obj/cmd_stark_getPublicKey.o
                                          0x8 (size before relaxing)
 .ARM.exidx.text.handleStarkwareProvideQuantum
                0x00000000d0000000        0x0 obj/cmd_stark_provideQuantum.o
                                          0x8 (size before relaxing)
 .ARM.exidx.text.handleStarkwareSignMessage
                0x00000000d0000000        0x0 obj/cmd_stark_sign.o
                                          0x8 (size before relaxing)
 .ARM.exidx.text.handleStarkwareUnsafeSign
                0x00000000d0000000        0x0 obj/cmd_stark_unsafe_sign.o
                                          0x8 (size before relaxing)
 .ARM.exidx.text.get_underlying_asset_decimals
                0x00000000d0000000        0x0 obj/compound_plugin.o
                                          0x8 (size before relaxing)
 .ARM.exidx.text.compound_plugin_call
                0x00000000d0000000        0x0 obj/compound_plugin.o
                                          0x8 (size before relaxing)
 .ARM.exidx.text.check_token_binding
                0x00000000d0000000        0x0 obj/erc20_plugin.o
                                          0x8 (size before relaxing)
 .ARM.exidx.text.erc20_plugin_available_check
                0x00000000d0000000        0x0 obj/erc20_plugin.o
                                          0x8 (size before relaxing)
 .ARM.exidx.text.erc20_plugin_call
                0x00000000d0000000        0x0 obj/erc20_plugin.o
                                          0x8 (size before relaxing)
 .ARM.exidx.text.erc721_plugin_available_check
                0x00000000d0000000        0x0 obj/erc721_plugin.o
                                          0x8 (size before relaxing)
 .ARM.exidx.text.erc721_plugin_call
                0x00000000d0000000        0x0 obj/erc721_plugin.o
                                          0x8 (size before relaxing)
 .ARM.exidx.text.initTx
                0x00000000d0000000        0x0 obj/ethUstream.o
                                          0x8 (size before relaxing)
 .ARM.exidx.text.readTxByte
                0x00000000d0000000        0x0 obj/ethUstream.o
                                          0x8 (size before relaxing)
 .ARM.exidx.text.copyTxData
                0x00000000d0000000        0x0 obj/ethUstream.o
                                          0x8 (size before relaxing)
 .ARM.exidx.text.decodeThetaData
                0x00000000d0000000        0x0 obj/ethUstream.o
                                          0x8 (size before relaxing)
 .ARM.exidx.text.processTx
                0x00000000d0000000        0x0 obj/ethUstream.o
                                          0x8 (size before relaxing)
 .ARM.exidx.text.processTxInternal
                0x00000000d0000000        0x0 obj/ethUstream.o
                                          0x8 (size before relaxing)
 .ARM.exidx.text.continueTx
                0x00000000d0000000        0x0 obj/ethUstream.o
                                          0x8 (size before relaxing)
 .ARM.exidx.text.rlpCanDecode
                0x00000000d0000000        0x0 obj/ethUtils.o
                                          0x8 (size before relaxing)
 .ARM.exidx.text.rlpDecodeLength
                0x00000000d0000000        0x0 obj/ethUtils.o
                                          0x8 (size before relaxing)
 .ARM.exidx.text.getEthAddressStringFromKey
                0x00000000d0000000        0x0 obj/ethUtils.o
                                          0x8 (size before relaxing)
 .ARM.exidx.text.getEthAddressStringFromBinary
                0x00000000d0000000        0x0 obj/ethUtils.o
                                          0x8 (size before relaxing)
 .ARM.exidx.text.getThetaTxFromBinary
                0x00000000d0000000        0x0 obj/ethUtils.o
                                          0x8 (size before relaxing)
 .ARM.exidx.text.adjustDecimals
                0x00000000d0000000        0x0 obj/ethUtils.o
                                          0x8 (size before relaxing)
 .ARM.exidx.text.eth_plugin_prepare_init
                0x00000000d0000000        0x0 obj/eth_plugin_handler.o
                                          0x8 (size before relaxing)
 .ARM.exidx.text.eth_plugin_prepare_provide_parameter
                0x00000000d0000000        0x0 obj/eth_plugin_handler.o
                                          0x8 (size before relaxing)
 .ARM.exidx.text.eth_plugin_prepare_finalize
                0x00000000d0000000        0x0 obj/eth_plugin_handler.o
                                          0x8 (size before relaxing)
 .ARM.exidx.text.eth_plugin_prepare_provide_token
                0x00000000d0000000        0x0 obj/eth_plugin_handler.o
                                          0x8 (size before relaxing)
 .ARM.exidx.text.eth_plugin_prepare_query_contract_ID
                0x00000000d0000000        0x0 obj/eth_plugin_handler.o
                                          0x8 (size before relaxing)
 .ARM.exidx.text.eth_plugin_prepare_query_contract_UI
                0x00000000d0000000        0x0 obj/eth_plugin_handler.o
                                          0x8 (size before relaxing)
 .ARM.exidx.text.eth_plugin_perform_init
                0x00000000d0000000        0x0 obj/eth_plugin_handler.o
                                          0x8 (size before relaxing)
 .ARM.exidx.text.eth_plugin_call
                0x00000000d0000000        0x0 obj/eth_plugin_handler.o
                                          0x8 (size before relaxing)
 .ARM.exidx.text.plugin_ui_get_id
                0x00000000d0000000        0x0 obj/eth_plugin_ui.o
                                          0x8 (size before relaxing)
 .ARM.exidx.text.plugin_ui_get_item
                0x00000000d0000000        0x0 obj/eth_plugin_ui.o
                                          0x8 (size before relaxing)
 .ARM.exidx.text.display_next_plugin_item
                0x00000000d0000000        0x0 obj/eth_plugin_ui.o
                                          0x8 (size before relaxing)
 .ARM.exidx.text.ux_plugin_approval_id_step_init
                0x00000000d0000000        0x0 obj/eth_plugin_ui.o
                                          0x8 (size before relaxing)
 .ARM.exidx.text.ux_plugin_approval_before_step_init
                0x00000000d0000000        0x0 obj/eth_plugin_ui.o
                                          0x8 (size before relaxing)
 .ARM.exidx.text.ux_plugin_approval_after_step_init
                0x00000000d0000000        0x0 obj/eth_plugin_ui.o
                                          0x8 (size before relaxing)
 .ARM.exidx.text.ux_plugin_approval_fees_step_init
                0x00000000d0000000        0x0 obj/eth_plugin_ui.o
                                          0x8 (size before relaxing)
 .ARM.exidx.text.ux_plugin_approval_ok_step_validateinit
                0x00000000d0000000        0x0 obj/eth_plugin_ui.o
                                          0x8 (size before relaxing)
 .ARM.exidx.text.ux_plugin_approval_cancel_step_validateinit
                0x00000000d0000000        0x0 obj/eth_plugin_ui.o
                                          0x8 (size before relaxing)
 .ARM.exidx.text.plugin_ui_start
                0x00000000d0000000        0x0 obj/eth_plugin_ui.o
                                          0x8 (size before relaxing)
 .ARM.exidx.text.handle_check_address
                0x00000000d0000000        0x0 obj/handle_check_address.o
                                          0x8 (size before relaxing)
 .ARM.exidx.text.handle_get_printable_amount
                0x00000000d0000000        0x0 obj/handle_get_printable_amount.o
                                          0x8 (size before relaxing)
 .ARM.exidx.text.copy_transaction_parameters
                0x00000000d0000000        0x0 obj/handle_swap_sign_transaction.o
                                          0x8 (size before relaxing)
 .ARM.exidx.text.handle_swap_sign_transaction
                0x00000000d0000000        0x0 obj/handle_swap_sign_transaction.o
                                          0x8 (size before relaxing)
 .ARM.exidx.text.set_result_get_publicKey
                0x00000000d0000000        0x0 obj/logic_getPublicKey.o
                                          0x8 (size before relaxing)
 .ARM.exidx.text.splitBinaryParameterPart
                0x00000000d0000000        0x0 obj/logic_signTx.o
                                          0x8 (size before relaxing)
 .ARM.exidx.text.customProcessor
                0x00000000d0000000        0x0 obj/logic_signTx.o
                                          0x8 (size before relaxing)
 .ARM.exidx.text.compareOrCopy
                0x00000000d0000000        0x0 obj/logic_signTx.o
                                          0x8 (size before relaxing)
 .ARM.exidx.text.reportFinalizeError
                0x00000000d0000000        0x0 obj/logic_signTx.o
                                          0x8 (size before relaxing)
 .ARM.exidx.text.computeFees
                0x00000000d0000000        0x0 obj/logic_signTx.o
                                          0x8 (size before relaxing)
 .ARM.exidx.text.finalizeParsing
                0x00000000d0000000        0x0 obj/logic_signTx.o
                                          0x8 (size before relaxing)
 .ARM.exidx.text.set_result_get_stark_publicKey
                0x00000000d0000000        0x0 obj/logic_stark_getPublicKey.o
                                          0x8 (size before relaxing)
 .ARM.exidx.text.reset_app_context
                0x00000000d0000000        0x0 obj/main.o
                                          0x8 (size before relaxing)
 .ARM.exidx.text.ui_idle
                0x00000000d0000000        0x0 obj/main.o
                                          0x8 (size before relaxing)
 .ARM.exidx.text.io_seproxyhal_send_status
                0x00000000d0000000        0x0 obj/main.o
                                          0x8 (size before relaxing)
 .ARM.exidx.text.format_signature_out
                0x00000000d0000000        0x0 obj/main.o
                                          0x8 (size before relaxing)
 .ARM.exidx.text.io_exchange_al
                0x00000000d0000000        0x0 obj/main.o
                                          0x8 (size before relaxing)
 .ARM.exidx.text.getKnownToken
                0x00000000d0000000        0x0 obj/main.o
                                          0x8 (size before relaxing)
 .ARM.exidx.text.handleApdu
                0x00000000d0000000        0x0 obj/main.o
                                          0x8 (size before relaxing)
 .ARM.exidx.text.app_main
                0x00000000d0000000        0x0 obj/main.o
                                          0x8 (size before relaxing)
 .ARM.exidx.text.io_seproxyhal_display
                0x00000000d0000000        0x0 obj/main.o
                                          0x8 (size before relaxing)
 .ARM.exidx.text.io_event
                0x00000000d0000000        0x0 obj/main.o
                                          0x8 (size before relaxing)
 .ARM.exidx.text.app_exit
                0x00000000d0000000        0x0 obj/main.o
                                          0x8 (size before relaxing)
 .ARM.exidx.text.coin_main
                0x00000000d0000000        0x0 obj/main.o
                                          0x8 (size before relaxing)
 .ARM.exidx.text.library_main
                0x00000000d0000000        0x0 obj/main.o
                                          0x8 (size before relaxing)
 .ARM.exidx.boot
                0x00000000d0000000        0x8 obj/main.o
 .ARM.exidx.text.os_boot
                0x00000000d0000008        0x0 obj/os.o
                                          0x8 (size before relaxing)
 .ARM.exidx.text.os_memmove
                0x00000000d0000008        0x0 obj/os.o
                                          0x8 (size before relaxing)
 .ARM.exidx.text.os_memset
                0x00000000d0000008        0x0 obj/os.o
                                          0x8 (size before relaxing)
 .ARM.exidx.text.os_memcmp
                0x00000000d0000008        0x0 obj/os.o
                                          0x8 (size before relaxing)
 .ARM.exidx.text.os_longjmp
                0x00000000d0000008        0x0 obj/os.o
                                          0x8 (size before relaxing)
 .ARM.exidx.text.os_secure_memcmp
                0x00000000d0000008        0x0 obj/os.o
                                          0x8 (size before relaxing)
 .ARM.exidx.text.os_parse_bertlv
                0x00000000d0000008        0x0 obj/os.o
                                          0x8 (size before relaxing)
 .ARM.exidx.text.io_seproxyhal_general_status
                0x00000000d0000008        0x0 obj/os_io_seproxyhal.o
                                          0x8 (size before relaxing)
 .ARM.exidx.text.io_seproxyhal_handle_usb_event
                0x00000000d0000008        0x0 obj/os_io_seproxyhal.o
                                          0x8 (size before relaxing)
 .ARM.exidx.text.io_seproxyhal_get_ep_rx_size
                0x00000000d0000008        0x0 obj/os_io_seproxyhal.o
                                          0x8 (size before relaxing)
 .ARM.exidx.text.io_seproxyhal_handle_usb_ep_xfer_event
                0x00000000d0000008        0x0 obj/os_io_seproxyhal.o
                                          0x8 (size before relaxing)
 .ARM.exidx.text.io_usb_send_ep
                0x00000000d0000008        0x0 obj/os_io_seproxyhal.o
                                          0x8 (size before relaxing)
 .ARM.exidx.text.io_usb_send_apdu_data
                0x00000000d0000008        0x0 obj/os_io_seproxyhal.o
                                          0x8 (size before relaxing)
 .ARM.exidx.text.io_usb_send_apdu_data_ep0x83
                0x00000000d0000008        0x0 obj/os_io_seproxyhal.o
                                          0x8 (size before relaxing)
 .ARM.exidx.text.io_seproxyhal_handle_capdu_event
                0x00000000d0000008        0x0 obj/os_io_seproxyhal.o
                                          0x8 (size before relaxing)
 .ARM.exidx.text.io_seproxyhal_handle_event
                0x00000000d0000008        0x0 obj/os_io_seproxyhal.o
                                          0x8 (size before relaxing)
 .ARM.exidx.text.io_seproxyhal_init
                0x00000000d0000008        0x0 obj/os_io_seproxyhal.o
                                          0x8 (size before relaxing)
 .ARM.exidx.text.io_seproxyhal_init_ux
                0x00000000d0000008        0x0 obj/os_io_seproxyhal.o
                                          0x8 (size before relaxing)
 .ARM.exidx.text.io_seproxyhal_init_button
                0x00000000d0000008        0x0 obj/os_io_seproxyhal.o
                                          0x8 (size before relaxing)
 .ARM.exidx.text.io_seproxyhal_display_icon
                0x00000000d0000008        0x0 obj/os_io_seproxyhal.o
                                          0x8 (size before relaxing)
 .ARM.exidx.text.io_seproxyhal_display_default
                0x00000000d0000008        0x0 obj/os_io_seproxyhal.o
                                          0x8 (size before relaxing)
 .ARM.exidx.text.io_seproxyhal_button_push
                0x00000000d0000008        0x0 obj/os_io_seproxyhal.o
                                          0x8 (size before relaxing)
 .ARM.exidx.text.os_io_seproxyhal_get_app_name_and_version
                0x00000000d0000008        0x0 obj/os_io_seproxyhal.o
                                          0x8 (size before relaxing)
 .ARM.exidx.text.io_exchange
                0x00000000d0000008        0x0 obj/os_io_seproxyhal.o
                                          0x8 (size before relaxing)
 .ARM.exidx.text.os_io_seph_recv_and_process
                0x00000000d0000008        0x0 obj/os_io_seproxyhal.o
                                          0x8 (size before relaxing)
 .ARM.exidx.text.mcu_usb_printc
                0x00000000d0000008        0x0 obj/os_io_seproxyhal.o
                                          0x8 (size before relaxing)
 .ARM.exidx.text.io_seproxyhal_io_heartbeat
                0x00000000d0000008        0x0 obj/os_io_seproxyhal.o
                                          0x8 (size before relaxing)
 .ARM.exidx.text.io_usb_hid_receive
                0x00000000d0000008        0x0 obj/os_io_usb.o
                                          0x8 (size before relaxing)
 .ARM.exidx.text.io_usb_hid_init
                0x00000000d0000008        0x0 obj/os_io_usb.o
                                          0x8 (size before relaxing)
 .ARM.exidx.text.io_usb_hid_sent
                0x00000000d0000008        0x0 obj/os_io_usb.o
                                          0x8 (size before relaxing)
 .ARM.exidx.text.io_usb_hid_send
                0x00000000d0000008        0x0 obj/os_io_usb.o
                                          0x8 (size before relaxing)
 .ARM.exidx.text.mcu_usb_prints
                0x00000000d0000008        0x0 obj/os_printf.o
                                          0x8 (size before relaxing)
 .ARM.exidx.text.mcu_usb_printf
                0x00000000d0000008        0x0 obj/os_printf.o
                                          0x8 (size before relaxing)
 .ARM.exidx.text.snprintf
                0x00000000d0000008        0x0 obj/os_printf.o
                                          0x8 (size before relaxing)
 .ARM.exidx.text.pic
                0x00000000d0000008        0x0 obj/pic.o
                                          0x8 (size before relaxing)
 .ARM.exidx.text.pic_internal
                0x00000000d0000008        0x0 obj/pic_internal.o
                                          0x8 (size before relaxing)
 .ARM.exidx.text.poorstream_init
                0x00000000d0000008        0x0 obj/poorstream.o
                                          0x8 (size before relaxing)
 .ARM.exidx.text.poorstream_flush
                0x00000000d0000008        0x0 obj/poorstream.o
                                          0x8 (size before relaxing)
 .ARM.exidx.text.poorstream_write_bits
                0x00000000d0000008        0x0 obj/poorstream.o
                                          0x8 (size before relaxing)
 .ARM.exidx.text.starkDerivePrivateKey
                0x00000000d0000008        0x0 obj/stark_crypto.o
                                          0x8 (size before relaxing)
 .ARM.exidx.text.stark_get_amount_string
                0x00000000d0000008        0x0 obj/stark_crypto.o
                                          0x8 (size before relaxing)
 .ARM.exidx.text.accum_ec_mul
                0x00000000d0000008        0x0 obj/stark_utils.o
                                          0x8 (size before relaxing)
 .ARM.exidx.text.pedersen
                0x00000000d0000008        0x0 obj/stark_utils.o
                                          0x8 (size before relaxing)
 .ARM.exidx.text.stark_sign
                0x00000000d0000008        0x0 obj/stark_utils.o
                                          0x8 (size before relaxing)
 .ARM.exidx.text.compute_token_id
                0x00000000d0000008        0x0 obj/stark_utils.o
                                          0x8 (size before relaxing)
 .ARM.exidx.text.starkware_verify_asset_id
                0x00000000d0000008        0x0 obj/starkware_plugin.o
                                          0x8 (size before relaxing)
 .ARM.exidx.text.starkware_verify_nft_token_id
                0x00000000d0000008        0x0 obj/starkware_plugin.o
                                          0x8 (size before relaxing)
 .ARM.exidx.text.starkware_print_stark_key
                0x00000000d0000008        0x0 obj/starkware_plugin.o
                                          0x8 (size before relaxing)
 .ARM.exidx.text.starkware_print_eth_address
                0x00000000d0000008        0x0 obj/starkware_plugin.o
                                          0x8 (size before relaxing)
 .ARM.exidx.text.starkware_print_amount
                0x00000000d0000008        0x0 obj/starkware_plugin.o
                                          0x8 (size before relaxing)
 .ARM.exidx.text.starkware_print_asset_contract
                0x00000000d0000008        0x0 obj/starkware_plugin.o
                                          0x8 (size before relaxing)
 .ARM.exidx.text.starkware_get_source_address
                0x00000000d0000008        0x0 obj/starkware_plugin.o
                                          0x8 (size before relaxing)
 .ARM.exidx.text.starkware_plugin_call
                0x00000000d0000008        0x0 obj/starkware_plugin.o
                                          0x8 (size before relaxing)
 .ARM.exidx.text.SVC_Call
                0x00000000d0000008        0x0 obj/syscalls.o
                                          0x8 (size before relaxing)
 .ARM.exidx.text.check_api_level
                0x00000000d0000008        0x0 obj/syscalls.o
                                          0x8 (size before relaxing)
 .ARM.exidx.text.halt
                0x00000000d0000008        0x0 obj/syscalls.o
                                          0x8 (size before relaxing)
 .ARM.exidx.text.nvm_write
                0x00000000d0000008        0x0 obj/syscalls.o
                                          0x8 (size before relaxing)
 .ARM.exidx.text.cx_rng
                0x00000000d0000008        0x0 obj/syscalls.o
                                          0x8 (size before relaxing)
 .ARM.exidx.text.cx_hash
                0x00000000d0000008        0x0 obj/syscalls.o
                                          0x8 (size before relaxing)
 .ARM.exidx.text.cx_sha256_init
                0x00000000d0000008        0x0 obj/syscalls.o
                                          0x8 (size before relaxing)
 .ARM.exidx.text.cx_hash_sha256
                0x00000000d0000008        0x0 obj/syscalls.o
                                          0x8 (size before relaxing)
 .ARM.exidx.text.cx_keccak_init
                0x00000000d0000008        0x0 obj/syscalls.o
                                          0x8 (size before relaxing)
 .ARM.exidx.text.cx_ecfp_add_point
                0x00000000d0000008        0x0 obj/syscalls.o
                                          0x8 (size before relaxing)
 .ARM.exidx.text.cx_ecfp_scalar_mult
                0x00000000d0000008        0x0 obj/syscalls.o
                                          0x8 (size before relaxing)
 .ARM.exidx.text.cx_ecfp_init_public_key
                0x00000000d0000008        0x0 obj/syscalls.o
                                          0x8 (size before relaxing)
 .ARM.exidx.text.cx_ecfp_init_private_key
                0x00000000d0000008        0x0 obj/syscalls.o
                                          0x8 (size before relaxing)
 .ARM.exidx.text.cx_ecfp_generate_pair
                0x00000000d0000008        0x0 obj/syscalls.o
                                          0x8 (size before relaxing)
 .ARM.exidx.text.cx_ecdsa_sign
                0x00000000d0000008        0x0 obj/syscalls.o
                                          0x8 (size before relaxing)
 .ARM.exidx.text.cx_ecdsa_verify
                0x00000000d0000008        0x0 obj/syscalls.o
                                          0x8 (size before relaxing)
 .ARM.exidx.text.cx_crc16_update
                0x00000000d0000008        0x0 obj/syscalls.o
                                          0x8 (size before relaxing)
 .ARM.exidx.text.cx_math_cmp
                0x00000000d0000008        0x0 obj/syscalls.o
                                          0x8 (size before relaxing)
 .ARM.exidx.text.cx_math_mult
                0x00000000d0000008        0x0 obj/syscalls.o
                                          0x8 (size before relaxing)
 .ARM.exidx.text.cx_math_modm
                0x00000000d0000008        0x0 obj/syscalls.o
                                          0x8 (size before relaxing)
 .ARM.exidx.text.os_perso_isonboarded
                0x00000000d0000008        0x0 obj/syscalls.o
                                          0x8 (size before relaxing)
 .ARM.exidx.text.os_perso_derive_node_bip32
                0x00000000d0000008        0x0 obj/syscalls.o
                                          0x8 (size before relaxing)
 .ARM.exidx.text.os_perso_seed_cookie
                0x00000000d0000008        0x0 obj/syscalls.o
                                          0x8 (size before relaxing)
 .ARM.exidx.text.os_global_pin_is_validated
                0x00000000d0000008        0x0 obj/syscalls.o
                                          0x8 (size before relaxing)
 .ARM.exidx.text.os_ux
                0x00000000d0000008        0x0 obj/syscalls.o
                                          0x8 (size before relaxing)
 .ARM.exidx.text.os_lib_call
                0x00000000d0000008        0x0 obj/syscalls.o
                                          0x8 (size before relaxing)
 .ARM.exidx.text.os_lib_end
                0x00000000d0000008        0x0 obj/syscalls.o
                                          0x8 (size before relaxing)
 .ARM.exidx.text.os_flags
                0x00000000d0000008        0x0 obj/syscalls.o
                                          0x8 (size before relaxing)
 .ARM.exidx.text.os_registry_get_current_app_tag
                0x00000000d0000008        0x0 obj/syscalls.o
                                          0x8 (size before relaxing)
 .ARM.exidx.text.os_sched_exit
                0x00000000d0000008        0x0 obj/syscalls.o
                                          0x8 (size before relaxing)
 .ARM.exidx.text.io_seph_send
                0x00000000d0000008        0x0 obj/syscalls.o
                                          0x8 (size before relaxing)
 .ARM.exidx.text.io_seph_is_status_sent
                0x00000000d0000008        0x0 obj/syscalls.o
                                          0x8 (size before relaxing)
 .ARM.exidx.text.io_seph_recv
                0x00000000d0000008        0x0 obj/syscalls.o
                                          0x8 (size before relaxing)
 .ARM.exidx.text.try_context_get
                0x00000000d0000008        0x0 obj/syscalls.o
                                          0x8 (size before relaxing)
 .ARM.exidx.text.try_context_set
                0x00000000d0000008        0x0 obj/syscalls.o
                                          0x8 (size before relaxing)
 .ARM.exidx.text.os_sched_last_status
                0x00000000d0000008        0x0 obj/syscalls.o
                                          0x8 (size before relaxing)
 .ARM.exidx.text.u2f_apdu_sign
                0x00000000d0000008        0x0 obj/u2f_impl.o
                                          0x8 (size before relaxing)
 .ARM.exidx.text.u2f_handle_cmd_init
                0x00000000d0000008        0x0 obj/u2f_impl.o
                                          0x8 (size before relaxing)
 .ARM.exidx.text.u2f_handle_cmd_msg
                0x00000000d0000008        0x0 obj/u2f_impl.o
                                          0x8 (size before relaxing)
 .ARM.exidx.text.u2f_message_complete
                0x00000000d0000008        0x0 obj/u2f_impl.o
                                          0x8 (size before relaxing)
 .ARM.exidx.text.u2f_io_send
                0x00000000d0000008        0x0 obj/u2f_io.o
                                          0x8 (size before relaxing)
 .ARM.exidx.text.u2f_transport_init
                0x00000000d0000008        0x0 obj/u2f_transport.o
                                          0x8 (size before relaxing)
 .ARM.exidx.text.u2f_transport_sent
                0x00000000d0000008        0x0 obj/u2f_transport.o
                                          0x8 (size before relaxing)
 .ARM.exidx.text.u2f_message_repliable
                0x00000000d0000008        0x0 obj/u2f_transport.o
                                          0x8 (size before relaxing)
 .ARM.exidx.text.u2f_transport_send_usb_user_presence_required
                0x00000000d0000008        0x0 obj/u2f_transport.o
                                          0x8 (size before relaxing)
 .ARM.exidx.text.u2f_transport_send_wink
                0x00000000d0000008        0x0 obj/u2f_transport.o
                                          0x8 (size before relaxing)
 .ARM.exidx.text.u2f_transport_receive_fakeChannel
                0x00000000d0000008        0x0 obj/u2f_transport.o
                                          0x8 (size before relaxing)
 .ARM.exidx.text.u2f_transport_received
                0x00000000d0000008        0x0 obj/u2f_transport.o
                                          0x8 (size before relaxing)
 .ARM.exidx.text.u2f_is_channel_broadcast
                0x00000000d0000008        0x0 obj/u2f_transport.o
                                          0x8 (size before relaxing)
 .ARM.exidx.text.u2f_message_set_autoreply_wait_user_presence
                0x00000000d0000008        0x0 obj/u2f_transport.o
                                          0x8 (size before relaxing)
 .ARM.exidx.text.u2f_message_reply
                0x00000000d0000008        0x0 obj/u2f_transport.o
                                          0x8 (size before relaxing)
 .ARM.exidx.text.io_seproxyhal_touch_address_ok
                0x00000000d0000008        0x0 obj/ui_common_getPublicKey.o
                                          0x8 (size before relaxing)
 .ARM.exidx.text.io_seproxyhal_touch_address_cancel
                0x00000000d0000008        0x0 obj/ui_common_getPublicKey.o
                                          0x8 (size before relaxing)
 .ARM.exidx.text.io_seproxyhal_touch_signMessage_ok
                0x00000000d0000008        0x0 obj/ui_common_signMessage.o
                                          0x8 (size before relaxing)
 .ARM.exidx.text.io_seproxyhal_touch_signMessage_cancel
                0x00000000d0000008        0x0 obj/ui_common_signMessage.o
                                          0x8 (size before relaxing)
 .ARM.exidx.text.io_seproxyhal_touch_signMessage712_v0_ok
                0x00000000d0000008        0x0 obj/ui_common_signMessage712.o
                                          0x8 (size before relaxing)
 .ARM.exidx.text.io_seproxyhal_touch_signMessage712_v0_cancel
                0x00000000d0000008        0x0 obj/ui_common_signMessage712.o
                                          0x8 (size before relaxing)
 .ARM.exidx.text.io_seproxyhal_touch_tx_ok
                0x00000000d0000008        0x0 obj/ui_common_signTx.o
                                          0x8 (size before relaxing)
 .ARM.exidx.text.io_seproxyhal_touch_tx_cancel
                0x00000000d0000008        0x0 obj/ui_common_signTx.o
                                          0x8 (size before relaxing)
 .ARM.exidx.text.io_seproxyhal_touch_data_ok
                0x00000000d0000008        0x0 obj/ui_common_signTx.o
                                          0x8 (size before relaxing)
 .ARM.exidx.text.io_seproxyhal_touch_data_cancel
                0x00000000d0000008        0x0 obj/ui_common_signTx.o
                                          0x8 (size before relaxing)
 .ARM.exidx.text.io_seproxyhal_touch_stark_pubkey_ok
                0x00000000d0000008        0x0 obj/ui_common_stark_getPublicKey.o
                                          0x8 (size before relaxing)
 .ARM.exidx.text.io_seproxyhal_touch_stark_ok
                0x00000000d0000008        0x0 obj/ui_common_stark_sign.o
                                          0x8 (size before relaxing)
 .ARM.exidx.text.io_seproxyhal_touch_stark_unsafe_sign_ok
                0x00000000d0000008        0x0 obj/ui_common_stark_unsafe_sign.o
                                          0x8 (size before relaxing)
 .ARM.exidx.text.ux_idle_flow_3_step_validateinit
                0x00000000d0000008        0x0 obj/ui_flow.o
                                          0x8 (size before relaxing)
 .ARM.exidx.text.display_settings
                0x00000000d0000008        0x0 obj/ui_flow.o
                                          0x8 (size before relaxing)
 .ARM.exidx.text.ux_idle_flow_4_step_validateinit
                0x00000000d0000008        0x0 obj/ui_flow.o
                                          0x8 (size before relaxing)
 .ARM.exidx.text.ux_settings_flow_1_step_validateinit
                0x00000000d0000008        0x0 obj/ui_flow.o
                                          0x8 (size before relaxing)
 .ARM.exidx.text.switch_settings_contract_data
                0x00000000d0000008        0x0 obj/ui_flow.o
                                          0x8 (size before relaxing)
 .ARM.exidx.text.ux_settings_flow_2_step_validateinit
                0x00000000d0000008        0x0 obj/ui_flow.o
                                          0x8 (size before relaxing)
 .ARM.exidx.text.switch_settings_display_data
                0x00000000d0000008        0x0 obj/ui_flow.o
                                          0x8 (size before relaxing)
 .ARM.exidx.text.ux_settings_flow_3_step_validateinit
                0x00000000d0000008        0x0 obj/ui_flow.o
                                          0x8 (size before relaxing)
 .ARM.exidx.text.ux_display_public_flow_3_step_validateinit
                0x00000000d0000008        0x0 obj/ui_flow_getPublicKey.o
                                          0x8 (size before relaxing)
 .ARM.exidx.text.ux_display_public_flow_4_step_validateinit
                0x00000000d0000008        0x0 obj/ui_flow_getPublicKey.o
                                          0x8 (size before relaxing)
 .ARM.exidx.text.ux_sign_flow_3_step_validateinit
                0x00000000d0000008        0x0 obj/ui_flow_signMessage.o
                                          0x8 (size before relaxing)
 .ARM.exidx.text.ux_sign_flow_4_step_validateinit
                0x00000000d0000008        0x0 obj/ui_flow_signMessage.o
                                          0x8 (size before relaxing)
 .ARM.exidx.text.ux_sign_712_v0_flow_2_step_init
                0x00000000d0000008        0x0 obj/ui_flow_signMessage712.o
                                          0x8 (size before relaxing)
 .ARM.exidx.text.ux_sign_712_v0_flow_3_step_init
                0x00000000d0000008        0x0 obj/ui_flow_signMessage712.o
                                          0x8 (size before relaxing)
 .ARM.exidx.text.ux_sign_712_v0_flow_4_step_validateinit
                0x00000000d0000008        0x0 obj/ui_flow_signMessage712.o
                                          0x8 (size before relaxing)
 .ARM.exidx.text.ux_sign_712_v0_flow_5_step_validateinit
                0x00000000d0000008        0x0 obj/ui_flow_signMessage712.o
                                          0x8 (size before relaxing)
 .ARM.exidx.text.ux_confirm_selector_flow_3_step_validateinit
                0x00000000d0000008        0x0 obj/ui_flow_signTx.o
                                          0x8 (size before relaxing)
 .ARM.exidx.text.ux_confirm_selector_flow_4_step_validateinit
                0x00000000d0000008        0x0 obj/ui_flow_signTx.o
                                          0x8 (size before relaxing)
 .ARM.exidx.text.ux_confirm_parameter_flow_3_step_validateinit
                0x00000000d0000008        0x0 obj/ui_flow_signTx.o
                                          0x8 (size before relaxing)
 .ARM.exidx.text.ux_confirm_parameter_flow_4_step_validateinit
                0x00000000d0000008        0x0 obj/ui_flow_signTx.o
                                          0x8 (size before relaxing)
 .ARM.exidx.text.ux_approval_tx_5_step_validateinit
                0x00000000d0000008        0x0 obj/ui_flow_signTx.o
                                          0x8 (size before relaxing)
 .ARM.exidx.text.ux_approval_tx_6_step_validateinit
                0x00000000d0000008        0x0 obj/ui_flow_signTx.o
                                          0x8 (size before relaxing)
 .ARM.exidx.text.ux_display_stark_public_flow_3_step_validateinit
                0x00000000d0000008        0x0 obj/ui_flow_stark_getPublicKey.o
                                          0x8 (size before relaxing)
 .ARM.exidx.text.ux_display_stark_public_flow_4_step_validateinit
                0x00000000d0000008        0x0 obj/ui_flow_stark_getPublicKey.o
                                          0x8 (size before relaxing)
 .ARM.exidx.text.ux_stark_limit_order_7_step_validateinit
                0x00000000d0000008        0x0 obj/ui_flow_stark_sign.o
                                          0x8 (size before relaxing)
 .ARM.exidx.text.ux_stark_limit_order_8_step_validateinit
                0x00000000d0000008        0x0 obj/ui_flow_stark_sign.o
                                          0x8 (size before relaxing)
 .ARM.exidx.text.ux_stark_transfer_6_step_validateinit
                0x00000000d0000008        0x0 obj/ui_flow_stark_sign.o
                                          0x8 (size before relaxing)
 .ARM.exidx.text.ux_stark_transfer_7_step_validateinit
                0x00000000d0000008        0x0 obj/ui_flow_stark_sign.o
                                          0x8 (size before relaxing)
 .ARM.exidx.text.ux_stark_conditional_transfer_4_step_init
                0x00000000d0000008        0x0 obj/ui_flow_stark_sign.o
                                          0x8 (size before relaxing)
 .ARM.exidx.text.ux_stark_conditional_transfer_8_step_init
                0x00000000d0000008        0x0 obj/ui_flow_stark_sign.o
                                          0x8 (size before relaxing)
 .ARM.exidx.text.ux_stark_conditional_transfer_9_step_init
                0x00000000d0000008        0x0 obj/ui_flow_stark_sign.o
                                          0x8 (size before relaxing)
 .ARM.exidx.text.ux_stark_unsafe_sign_2_step_init
                0x00000000d0000008        0x0 obj/ui_flow_stark_unsafe_sign.o
                                          0x8 (size before relaxing)
 .ARM.exidx.text.ux_stark_unsafe_sign_3_step_init
                0x00000000d0000008        0x0 obj/ui_flow_stark_unsafe_sign.o
                                          0x8 (size before relaxing)
 .ARM.exidx.text.ux_stark_unsafe_sign_4_step_validateinit
                0x00000000d0000008        0x0 obj/ui_flow_stark_unsafe_sign.o
                                          0x8 (size before relaxing)
 .ARM.exidx.text.ux_stark_unsafe_sign_5_step_validateinit
                0x00000000d0000008        0x0 obj/ui_flow_stark_unsafe_sign.o
                                          0x8 (size before relaxing)
 .ARM.exidx.text.readUint64BE
                0x00000000d0000008        0x0 obj/uint256.o
                                          0x8 (size before relaxing)
 .ARM.exidx.text.readu256BE
                0x00000000d0000008        0x0 obj/uint256.o
                                          0x8 (size before relaxing)
 .ARM.exidx.text.shiftl128
                0x00000000d0000008        0x0 obj/uint256.o
                                          0x8 (size before relaxing)
 .ARM.exidx.text.shiftl256
                0x00000000d0000008        0x0 obj/uint256.o
                                          0x8 (size before relaxing)
 .ARM.exidx.text.shiftr128
                0x00000000d0000008        0x0 obj/uint256.o
                                          0x8 (size before relaxing)
 .ARM.exidx.text.shiftr256
                0x00000000d0000008        0x0 obj/uint256.o
                                          0x8 (size before relaxing)
 .ARM.exidx.text.bits256
                0x00000000d0000008        0x0 obj/uint256.o
                                          0x8 (size before relaxing)
 .ARM.exidx.text.gt256
                0x00000000d0000008        0x0 obj/uint256.o
                                          0x8 (size before relaxing)
 .ARM.exidx.text.gte256
                0x00000000d0000008        0x0 obj/uint256.o
                                          0x8 (size before relaxing)
 .ARM.exidx.text.minus256
                0x00000000d0000008        0x0 obj/uint256.o
                                          0x8 (size before relaxing)
 .ARM.exidx.text.write_u64_be
                0x00000000d0000008        0x0 obj/uint256.o
                                          0x8 (size before relaxing)
 .ARM.exidx.text.mul256
                0x00000000d0000008        0x0 obj/uint256.o
                                          0x8 (size before relaxing)
 .ARM.exidx.text.divmod256
                0x00000000d0000008        0x0 obj/uint256.o
                                          0x8 (size before relaxing)
 .ARM.exidx.text.tostring256
                0x00000000d0000008        0x0 obj/uint256.o
                                          0x8 (size before relaxing)
 .ARM.exidx.text.USBD_LL_Init
                0x00000000d0000008        0x0 obj/usbd_conf.o
                                          0x8 (size before relaxing)
 .ARM.exidx.text.USBD_LL_DeInit
                0x00000000d0000008        0x0 obj/usbd_conf.o
                                          0x8 (size before relaxing)
 .ARM.exidx.text.USBD_LL_Start
                0x00000000d0000008        0x0 obj/usbd_conf.o
                                          0x8 (size before relaxing)
 .ARM.exidx.text.USBD_LL_Stop
                0x00000000d0000008        0x0 obj/usbd_conf.o
                                          0x8 (size before relaxing)
 .ARM.exidx.text.USBD_LL_OpenEP
                0x00000000d0000008        0x0 obj/usbd_conf.o
                                          0x8 (size before relaxing)
 .ARM.exidx.text.USBD_LL_CloseEP
                0x00000000d0000008        0x0 obj/usbd_conf.o
                                          0x8 (size before relaxing)
 .ARM.exidx.text.USBD_LL_StallEP
                0x00000000d0000008        0x0 obj/usbd_conf.o
                                          0x8 (size before relaxing)
 .ARM.exidx.text.USBD_LL_ClearStallEP
                0x00000000d0000008        0x0 obj/usbd_conf.o
                                          0x8 (size before relaxing)
 .ARM.exidx.text.USBD_LL_IsStallEP
                0x00000000d0000008        0x0 obj/usbd_conf.o
                                          0x8 (size before relaxing)
 .ARM.exidx.text.USBD_LL_SetUSBAddress
                0x00000000d0000008        0x0 obj/usbd_conf.o
                                          0x8 (size before relaxing)
 .ARM.exidx.text.USBD_LL_Transmit
                0x00000000d0000008        0x0 obj/usbd_conf.o
                                          0x8 (size before relaxing)
 .ARM.exidx.text.USBD_LL_PrepareReceive
                0x00000000d0000008        0x0 obj/usbd_conf.o
                                          0x8 (size before relaxing)
 .ARM.exidx.text.USBD_Init
                0x00000000d0000008        0x0 obj/usbd_core.o
                                          0x8 (size before relaxing)
 .ARM.exidx.text.USBD_DeInit
                0x00000000d0000008        0x0 obj/usbd_core.o
                                          0x8 (size before relaxing)
 .ARM.exidx.text.USBD_RegisterClassForInterface
                0x00000000d0000008        0x0 obj/usbd_core.o
                                          0x8 (size before relaxing)
 .ARM.exidx.text.USBD_Start
                0x00000000d0000008        0x0 obj/usbd_core.o
                                          0x8 (size before relaxing)
 .ARM.exidx.text.USBD_SetClassConfig
                0x00000000d0000008        0x0 obj/usbd_core.o
                                          0x8 (size before relaxing)
 .ARM.exidx.text.USBD_ClrClassConfig
                0x00000000d0000008        0x0 obj/usbd_core.o
                                          0x8 (size before relaxing)
 .ARM.exidx.text.USBD_LL_SetupStage
                0x00000000d0000008        0x0 obj/usbd_core.o
                                          0x8 (size before relaxing)
 .ARM.exidx.text.USBD_LL_DataOutStage
                0x00000000d0000008        0x0 obj/usbd_core.o
                                          0x8 (size before relaxing)
 .ARM.exidx.text.USBD_LL_DataInStage
                0x00000000d0000008        0x0 obj/usbd_core.o
                                          0x8 (size before relaxing)
 .ARM.exidx.text.USBD_LL_Reset
                0x00000000d0000008        0x0 obj/usbd_core.o
                                          0x8 (size before relaxing)
 .ARM.exidx.text.USBD_LL_SetSpeed
                0x00000000d0000008        0x0 obj/usbd_core.o
                                          0x8 (size before relaxing)
 .ARM.exidx.text.USBD_LL_Suspend
                0x00000000d0000008        0x0 obj/usbd_core.o
                                          0x8 (size before relaxing)
 .ARM.exidx.text.USBD_LL_Resume
                0x00000000d0000008        0x0 obj/usbd_core.o
                                          0x8 (size before relaxing)
 .ARM.exidx.text.USBD_LL_SOF
                0x00000000d0000008        0x0 obj/usbd_core.o
                                          0x8 (size before relaxing)
 .ARM.exidx.text.usbd_is_valid_intf
                0x00000000d0000008        0x0 obj/usbd_ctlreq.o
                                          0x8 (size before relaxing)
 .ARM.exidx.text.USBD_StdDevReq
                0x00000000d0000008        0x0 obj/usbd_ctlreq.o
                                          0x8 (size before relaxing)
 .ARM.exidx.text.USBD_GetDescriptor
                0x00000000d0000008        0x0 obj/usbd_ctlreq.o
                                          0x8 (size before relaxing)
 .ARM.exidx.text.USBD_SetAddress
                0x00000000d0000008        0x0 obj/usbd_ctlreq.o
                                          0x8 (size before relaxing)
 .ARM.exidx.text.USBD_SetConfig
                0x00000000d0000008        0x0 obj/usbd_ctlreq.o
                                          0x8 (size before relaxing)
 .ARM.exidx.text.USBD_GetConfig
                0x00000000d0000008        0x0 obj/usbd_ctlreq.o
                                          0x8 (size before relaxing)
 .ARM.exidx.text.USBD_GetStatus
                0x00000000d0000008        0x0 obj/usbd_ctlreq.o
                                          0x8 (size before relaxing)
 .ARM.exidx.text.USBD_SetFeature
                0x00000000d0000008        0x0 obj/usbd_ctlreq.o
                                          0x8 (size before relaxing)
 .ARM.exidx.text.USBD_ClrFeature
                0x00000000d0000008        0x0 obj/usbd_ctlreq.o
                                          0x8 (size before relaxing)
 .ARM.exidx.text.USBD_StdItfReq
                0x00000000d0000008        0x0 obj/usbd_ctlreq.o
                                          0x8 (size before relaxing)
 .ARM.exidx.text.USBD_StdEPReq
                0x00000000d0000008        0x0 obj/usbd_ctlreq.o
                                          0x8 (size before relaxing)
 .ARM.exidx.text.USBD_ParseSetupRequest
                0x00000000d0000008        0x0 obj/usbd_ctlreq.o
                                          0x8 (size before relaxing)
 .ARM.exidx.text.USBD_CtlStall
                0x00000000d0000008        0x0 obj/usbd_ctlreq.o
                                          0x8 (size before relaxing)
 .ARM.exidx.text.USBD_HID_Setup
                0x00000000d0000008        0x0 obj/usbd_hid.o
                                          0x8 (size before relaxing)
 .ARM.exidx.text.USBD_HID_Init
                0x00000000d0000008        0x0 obj/usbd_hid.o
                                          0x8 (size before relaxing)
 .ARM.exidx.text.USBD_HID_DeInit
                0x00000000d0000008        0x0 obj/usbd_hid.o
                                          0x8 (size before relaxing)
 .ARM.exidx.text.USBD_HID_GetHidDescriptor_impl
                0x00000000d0000008        0x0 obj/usbd_impl.o
                                          0x8 (size before relaxing)
 .ARM.exidx.text.USBD_HID_GetReportDescriptor_impl
                0x00000000d0000008        0x0 obj/usbd_impl.o
                                          0x8 (size before relaxing)
 .ARM.exidx.text.USBD_U2F_Init
                0x00000000d0000008        0x0 obj/usbd_impl.o
                                          0x8 (size before relaxing)
 .ARM.exidx.text.USBD_U2F_DataIn_impl
                0x00000000d0000008        0x0 obj/usbd_impl.o
                                          0x8 (size before relaxing)
 .ARM.exidx.text.USBD_U2F_DataOut_impl
                0x00000000d0000008        0x0 obj/usbd_impl.o
                                          0x8 (size before relaxing)
 .ARM.exidx.text.USBD_HID_DataIn_impl
                0x00000000d0000008        0x0 obj/usbd_impl.o
                                          0x8 (size before relaxing)
 .ARM.exidx.text.USBD_HID_DataOut_impl
                0x00000000d0000008        0x0 obj/usbd_impl.o
                                          0x8 (size before relaxing)
 .ARM.exidx.text.USBD_WEBUSB_Init
                0x00000000d0000008        0x0 obj/usbd_impl.o
                                          0x8 (size before relaxing)
 .ARM.exidx.text.USBD_WEBUSB_DeInit
                0x00000000d0000008        0x0 obj/usbd_impl.o
                                          0x8 (size before relaxing)
 .ARM.exidx.text.USBD_WEBUSB_Setup
                0x00000000d0000008        0x0 obj/usbd_impl.o
                                          0x8 (size before relaxing)
 .ARM.exidx.text.USBD_WEBUSB_DataIn
                0x00000000d0000008        0x0 obj/usbd_impl.o
                                          0x8 (size before relaxing)
 .ARM.exidx.text.USBD_WEBUSB_DataOut
                0x00000000d0000008        0x0 obj/usbd_impl.o
                                          0x8 (size before relaxing)
 .ARM.exidx.text.USBD_DeviceDescriptor
                0x00000000d0000008        0x0 obj/usbd_impl.o
                                          0x8 (size before relaxing)
 .ARM.exidx.text.USBD_LangIDStrDescriptor
                0x00000000d0000008        0x0 obj/usbd_impl.o
                                          0x8 (size before relaxing)
 .ARM.exidx.text.USBD_ManufacturerStrDescriptor
                0x00000000d0000008        0x0 obj/usbd_impl.o
                                          0x8 (size before relaxing)
 .ARM.exidx.text.USBD_ProductStrDescriptor
                0x00000000d0000008        0x0 obj/usbd_impl.o
                                          0x8 (size before relaxing)
 .ARM.exidx.text.USBD_SerialStrDescriptor
                0x00000000d0000008        0x0 obj/usbd_impl.o
                                          0x8 (size before relaxing)
 .ARM.exidx.text.USBD_ConfigStrDescriptor
                0x00000000d0000008        0x0 obj/usbd_impl.o
                                          0x8 (size before relaxing)
 .ARM.exidx.text.USBD_InterfaceStrDescriptor
                0x00000000d0000008        0x0 obj/usbd_impl.o
                                          0x8 (size before relaxing)
 .ARM.exidx.text.USBD_BOSDescriptor
                0x00000000d0000008        0x0 obj/usbd_impl.o
                                          0x8 (size before relaxing)
 .ARM.exidx.text.USBD_CtlError
                0x00000000d0000008        0x0 obj/usbd_impl.o
                                          0x8 (size before relaxing)
 .ARM.exidx.text.USB_power
                0x00000000d0000008        0x0 obj/usbd_impl.o
                                          0x8 (size before relaxing)
 .ARM.exidx.text.USBD_GetCfgDesc_impl
                0x00000000d0000008        0x0 obj/usbd_impl.o
                                          0x8 (size before relaxing)
 .ARM.exidx.text.USBD_GetDeviceQualifierDesc_impl
                0x00000000d0000008        0x0 obj/usbd_impl.o
                                          0x8 (size before relaxing)
 .ARM.exidx.text.USBD_CtlSendData
                0x00000000d0000008        0x0 obj/usbd_ioreq.o
                                          0x8 (size before relaxing)
 .ARM.exidx.text.USBD_CtlContinueSendData
                0x00000000d0000008        0x0 obj/usbd_ioreq.o
                                          0x8 (size before relaxing)
 .ARM.exidx.text.USBD_CtlContinueRx
                0x00000000d0000008        0x0 obj/usbd_ioreq.o
                                          0x8 (size before relaxing)
 .ARM.exidx.text.USBD_CtlSendStatus
                0x00000000d0000008        0x0 obj/usbd_ioreq.o
                                          0x8 (size before relaxing)
 .ARM.exidx.text.USBD_CtlReceiveStatus
                0x00000000d0000008        0x0 obj/usbd_ioreq.o
                                          0x8 (size before relaxing)
 .ARM.exidx.text.array_hexstr
                0x00000000d0000008        0x0 obj/utils.o
                                          0x8 (size before relaxing)
 .ARM.exidx.text.convertUint256BE
                0x00000000d0000008        0x0 obj/utils.o
                                          0x8 (size before relaxing)
 .ARM.exidx.text.getV
                0x00000000d0000008        0x0 obj/utils.o
                                          0x8 (size before relaxing)
 .ARM.exidx.text.amountToString
                0x00000000d0000008        0x0 obj/utils.o
                                          0x8 (size before relaxing)
 .ARM.exidx.text.parse_swap_config
                0x00000000d0000008        0x0 obj/utils.o
                                          0x8 (size before relaxing)
 .ARM.exidx.text.ux_flow_is_first
                0x00000000d0000008        0x0 obj/ux_flow_engine.o
                                          0x8 (size before relaxing)
 .ARM.exidx.text.ux_flow_is_last
                0x00000000d0000008        0x0 obj/ux_flow_engine.o
                                          0x8 (size before relaxing)
 .ARM.exidx.text.ux_flow_direction
                0x00000000d0000008        0x0 obj/ux_flow_engine.o
                                          0x8 (size before relaxing)
 .ARM.exidx.text.ux_flow_next_internal
                0x00000000d0000008        0x0 obj/ux_flow_engine.o
                                          0x8 (size before relaxing)
 .ARM.exidx.text.ux_flow_next
                0x00000000d0000008        0x0 obj/ux_flow_engine.o
                                          0x8 (size before relaxing)
 .ARM.exidx.text.ux_flow_prev
                0x00000000d0000008        0x0 obj/ux_flow_engine.o
                                          0x8 (size before relaxing)
 .ARM.exidx.text.ux_flow_engine_init_step
                0x00000000d0000008        0x0 obj/ux_flow_engine.o
                                          0x8 (size before relaxing)
 .ARM.exidx.text.ux_flow_validate
                0x00000000d0000008        0x0 obj/ux_flow_engine.o
                                          0x8 (size before relaxing)
 .ARM.exidx.text.ux_flow_init
                0x00000000d0000008        0x0 obj/ux_flow_engine.o
                                          0x8 (size before relaxing)
 .ARM.exidx.text.ux_flow_button_callback
                0x00000000d0000008        0x0 obj/ux_flow_engine.o
                                          0x8 (size before relaxing)
 .ARM.exidx.text.ux_stack_get_step_params
                0x00000000d0000008        0x0 obj/ux_flow_engine.o
                                          0x8 (size before relaxing)
 .ARM.exidx.text.ux_stack_get_current_step_params
                0x00000000d0000008        0x0 obj/ux_flow_engine.o
                                          0x8 (size before relaxing)
 .ARM.exidx.text.ux_layout_bb_init_common
                0x00000000d0000008        0x0 obj/ux_layout_bb.o
                                          0x8 (size before relaxing)
 .ARM.exidx.text.ux_layout_bn_prepro
                0x00000000d0000008        0x0 obj/ux_layout_bn.o
                                          0x8 (size before relaxing)
 .ARM.exidx.text.ux_layout_bn_init
                0x00000000d0000008        0x0 obj/ux_layout_bn.o
                                          0x8 (size before relaxing)
 .ARM.exidx.text.ux_layout_nn_prepro
                0x00000000d0000008        0x0 obj/ux_layout_nn.o
                                          0x8 (size before relaxing)
 .ARM.exidx.text.ux_layout_nn_init
                0x00000000d0000008        0x0 obj/ux_layout_nn.o
                                          0x8 (size before relaxing)
 .ARM.exidx.text.ux_layout_paging_compute
                0x00000000d0000008        0x0 obj/ux_layout_paging.o
                                          0x8 (size before relaxing)
 .ARM.exidx.text.ux_layout_paging_redisplay
                0x00000000d0000008        0x0 obj/ux_layout_paging.o
                                          0x8 (size before relaxing)
 .ARM.exidx.text.ux_layout_paging_prepro
                0x00000000d0000008        0x0 obj/ux_layout_paging.o
                                          0x8 (size before relaxing)
 .ARM.exidx.text.ux_layout_paging_button_callback
                0x00000000d0000008        0x0 obj/ux_layout_paging.o
                                          0x8 (size before relaxing)
 .ARM.exidx.text.ux_layout_paging_init
                0x00000000d0000008        0x0 obj/ux_layout_paging.o
                                          0x8 (size before relaxing)
 .ARM.exidx.text.ux_layout_pb_prepro
                0x00000000d0000008        0x0 obj/ux_layout_pb.o
                                          0x8 (size before relaxing)
 .ARM.exidx.text.ux_layout_pb_init
                0x00000000d0000008        0x0 obj/ux_layout_pb.o
                                          0x8 (size before relaxing)
 .ARM.exidx.text.ux_layout_pbb_prepro
                0x00000000d0000008        0x0 obj/ux_layout_pbb.o
                                          0x8 (size before relaxing)
 .ARM.exidx.text.ux_layout_pbb_init_common
                0x00000000d0000008        0x0 obj/ux_layout_pbb.o
                                          0x8 (size before relaxing)
 .ARM.exidx.text.ux_layout_pbb_init
                0x00000000d0000008        0x0 obj/ux_layout_pbb.o
                                          0x8 (size before relaxing)
 .ARM.exidx.text.ux_layout_pnn_prepro
                0x00000000d0000008        0x0 obj/ux_layout_pnn.o
                                          0x8 (size before relaxing)
 .ARM.exidx.text.ux_layout_pnn_init
                0x00000000d0000008        0x0 obj/ux_layout_pnn.o
                                          0x8 (size before relaxing)
 .ARM.exidx.text.ux_layout_strings_prepro
                0x00000000d0000008        0x0 obj/ux_layout_utils.o
                                          0x8 (size before relaxing)
 .ARM.exidx.text.ux_stack_push
                0x00000000d0000008        0x0 obj/ux_stack.o
                                          0x8 (size before relaxing)
 .ARM.exidx.text.ux_stack_pop
                0x00000000d0000008        0x0 obj/ux_stack.o
                                          0x8 (size before relaxing)
 .ARM.exidx.text.ux_stack_display
                0x00000000d0000008        0x0 obj/ux_stack.o
                                          0x8 (size before relaxing)
 .ARM.exidx.text.ux_stack_init
                0x00000000d0000008        0x0 obj/ux_stack.o
                                          0x8 (size before relaxing)
 .ARM.exidx.text.ux_stack_al_display_next_element
                0x00000000d0000008        0x0 obj/ux_stack.o
                                          0x8 (size before relaxing)

.rel.dyn        0x00000000d0000008        0x0
 .rel.iplt      0x00000000d0000008        0x0 obj/base64.o

.stab
 *(.stab)

.stabstr
 *(.stabstr)

.stab.excl
 *(.stab.excl)

.stab.exclstr
 *(.stab.exclstr)

.stab.index
 *(.stab.index)

.stab.indexstr
 *(.stab.indexstr)

.comment        0x0000000000000000       0x2d
 *(.comment)
 .comment       0x0000000000000000       0x2d obj/base64.o
                                         0x2e (size before relaxing)
 .comment       0x000000000000002d       0x2e obj/checks.o
 .comment       0x000000000000002d       0x2e obj/cmd_getAppConfiguration.o
 .comment       0x000000000000002d       0x2e obj/cmd_getPublicKey.o
 .comment       0x000000000000002d       0x2e obj/cmd_provideTokenInfo.o
 .comment       0x000000000000002d       0x2e obj/cmd_signMessage.o
 .comment       0x000000000000002d       0x2e obj/cmd_signMessage712.o
 .comment       0x000000000000002d       0x2e obj/cmd_signTx.o
 .comment       0x000000000000002d       0x2e obj/cmd_stark_getPublicKey.o
 .comment       0x000000000000002d       0x2e obj/cmd_stark_provideQuantum.o
 .comment       0x000000000000002d       0x2e obj/cmd_stark_sign.o
 .comment       0x000000000000002d       0x2e obj/cmd_stark_unsafe_sign.o
 .comment       0x000000000000002d       0x2e obj/compound_plugin.o
 .comment       0x000000000000002d       0x2e obj/erc20_plugin.o
 .comment       0x000000000000002d       0x2e obj/erc721_plugin.o
 .comment       0x000000000000002d       0x2e obj/ethUstream.o
 .comment       0x000000000000002d       0x2e obj/ethUtils.o
 .comment       0x000000000000002d       0x2e obj/eth_plugin_handler.o
 .comment       0x000000000000002d       0x2e obj/eth_plugin_internal.o
 .comment       0x000000000000002d       0x2e obj/eth_plugin_ui.o
 .comment       0x000000000000002d       0x2e obj/glyphs.o
 .comment       0x000000000000002d       0x2e obj/handle_check_address.o
 .comment       0x000000000000002d       0x2e obj/handle_get_printable_amount.o
 .comment       0x000000000000002d       0x2e obj/handle_swap_sign_transaction.o
 .comment       0x000000000000002d       0x2e obj/logic_getPublicKey.o
 .comment       0x000000000000002d       0x2e obj/logic_signTx.o
 .comment       0x000000000000002d       0x2e obj/logic_stark_getPublicKey.o
 .comment       0x000000000000002d       0x2e obj/main.o
 .comment       0x000000000000002d       0x2e obj/os.o
 .comment       0x000000000000002d       0x2e obj/os_io_seproxyhal.o
 .comment       0x000000000000002d       0x2e obj/os_io_usb.o
 .comment       0x000000000000002d       0x2e obj/os_printf.o
 .comment       0x000000000000002d       0x2e obj/pic.o
 .comment       0x000000000000002d       0x2e obj/pic_internal.o
 .comment       0x000000000000002d       0x2e obj/poorstream.o
 .comment       0x000000000000002d       0x2e obj/stark_crypto.o
 .comment       0x000000000000002d       0x2e obj/stark_utils.o
 .comment       0x000000000000002d       0x2e obj/starkware_plugin.o
 .comment       0x000000000000002d       0x2e obj/syscalls.o
 .comment       0x000000000000002d       0x2e obj/u2f_impl.o
 .comment       0x000000000000002d       0x2e obj/u2f_io.o
 .comment       0x000000000000002d       0x2e obj/u2f_transport.o
 .comment       0x000000000000002d       0x2e obj/ui_common_getPublicKey.o
 .comment       0x000000000000002d       0x2e obj/ui_common_signMessage.o
 .comment       0x000000000000002d       0x2e obj/ui_common_signMessage712.o
 .comment       0x000000000000002d       0x2e obj/ui_common_signTx.o
 .comment       0x000000000000002d       0x2e obj/ui_common_stark_getPublicKey.o
 .comment       0x000000000000002d       0x2e obj/ui_common_stark_sign.o
 .comment       0x000000000000002d       0x2e obj/ui_common_stark_unsafe_sign.o
 .comment       0x000000000000002d       0x2e obj/ui_flow.o
 .comment       0x000000000000002d       0x2e obj/ui_flow_getPublicKey.o
 .comment       0x000000000000002d       0x2e obj/ui_flow_signMessage.o
 .comment       0x000000000000002d       0x2e obj/ui_flow_signMessage712.o
 .comment       0x000000000000002d       0x2e obj/ui_flow_signTx.o
 .comment       0x000000000000002d       0x2e obj/ui_flow_stark_getPublicKey.o
 .comment       0x000000000000002d       0x2e obj/ui_flow_stark_sign.o
 .comment       0x000000000000002d       0x2e obj/ui_flow_stark_unsafe_sign.o
 .comment       0x000000000000002d       0x2e obj/uint256.o
 .comment       0x000000000000002d       0x2e obj/usbd_conf.o
 .comment       0x000000000000002d       0x2e obj/usbd_core.o
 .comment       0x000000000000002d       0x2e obj/usbd_ctlreq.o
 .comment       0x000000000000002d       0x2e obj/usbd_hid.o
 .comment       0x000000000000002d       0x2e obj/usbd_impl.o
 .comment       0x000000000000002d       0x2e obj/usbd_ioreq.o
 .comment       0x000000000000002d       0x2e obj/utils.o
 .comment       0x000000000000002d       0x2e obj/ux_flow_engine.o
 .comment       0x000000000000002d       0x2e obj/ux_layout_bb.o
 .comment       0x000000000000002d       0x2e obj/ux_layout_bn.o
 .comment       0x000000000000002d       0x2e obj/ux_layout_nn.o
 .comment       0x000000000000002d       0x2e obj/ux_layout_paging.o
 .comment       0x000000000000002d       0x2e obj/ux_layout_pb.o
 .comment       0x000000000000002d       0x2e obj/ux_layout_pbb.o
 .comment       0x000000000000002d       0x2e obj/ux_layout_pnn.o
 .comment       0x000000000000002d       0x2e obj/ux_layout_utils.o
 .comment       0x000000000000002d       0x2e obj/ux_stack.o

.note.GNU-stack
                0x0000000000000000        0x0
 .note.GNU-stack
                0x0000000000000000        0x0 obj/base64.o
 .note.GNU-stack
                0x0000000000000000        0x0 obj/checks.o
 .note.GNU-stack
                0x0000000000000000        0x0 obj/cmd_getAppConfiguration.o
 .note.GNU-stack
                0x0000000000000000        0x0 obj/cmd_getPublicKey.o
 .note.GNU-stack
                0x0000000000000000        0x0 obj/cmd_provideTokenInfo.o
 .note.GNU-stack
                0x0000000000000000        0x0 obj/cmd_signMessage.o
 .note.GNU-stack
                0x0000000000000000        0x0 obj/cmd_signMessage712.o
 .note.GNU-stack
                0x0000000000000000        0x0 obj/cmd_signTx.o
 .note.GNU-stack
                0x0000000000000000        0x0 obj/cmd_stark_getPublicKey.o
 .note.GNU-stack
                0x0000000000000000        0x0 obj/cmd_stark_provideQuantum.o
 .note.GNU-stack
                0x0000000000000000        0x0 obj/cmd_stark_sign.o
 .note.GNU-stack
                0x0000000000000000        0x0 obj/cmd_stark_unsafe_sign.o
 .note.GNU-stack
                0x0000000000000000        0x0 obj/compound_plugin.o
 .note.GNU-stack
                0x0000000000000000        0x0 obj/erc20_plugin.o
 .note.GNU-stack
                0x0000000000000000        0x0 obj/erc721_plugin.o
 .note.GNU-stack
                0x0000000000000000        0x0 obj/ethUstream.o
 .note.GNU-stack
                0x0000000000000000        0x0 obj/ethUtils.o
 .note.GNU-stack
                0x0000000000000000        0x0 obj/eth_plugin_handler.o
 .note.GNU-stack
                0x0000000000000000        0x0 obj/eth_plugin_internal.o
 .note.GNU-stack
                0x0000000000000000        0x0 obj/eth_plugin_ui.o
 .note.GNU-stack
                0x0000000000000000        0x0 obj/glyphs.o
 .note.GNU-stack
                0x0000000000000000        0x0 obj/handle_check_address.o
 .note.GNU-stack
                0x0000000000000000        0x0 obj/handle_get_printable_amount.o
 .note.GNU-stack
                0x0000000000000000        0x0 obj/handle_swap_sign_transaction.o
 .note.GNU-stack
                0x0000000000000000        0x0 obj/logic_getPublicKey.o
 .note.GNU-stack
                0x0000000000000000        0x0 obj/logic_signTx.o
 .note.GNU-stack
                0x0000000000000000        0x0 obj/logic_stark_getPublicKey.o
 .note.GNU-stack
                0x0000000000000000        0x0 obj/main.o
 .note.GNU-stack
                0x0000000000000000        0x0 obj/os.o
 .note.GNU-stack
                0x0000000000000000        0x0 obj/os_io_seproxyhal.o
 .note.GNU-stack
                0x0000000000000000        0x0 obj/os_io_usb.o
 .note.GNU-stack
                0x0000000000000000        0x0 obj/os_printf.o
 .note.GNU-stack
                0x0000000000000000        0x0 obj/pic.o
 .note.GNU-stack
                0x0000000000000000        0x0 obj/pic_internal.o
 .note.GNU-stack
                0x0000000000000000        0x0 obj/poorstream.o
 .note.GNU-stack
                0x0000000000000000        0x0 obj/stark_crypto.o
 .note.GNU-stack
                0x0000000000000000        0x0 obj/stark_utils.o
 .note.GNU-stack
                0x0000000000000000        0x0 obj/starkware_plugin.o
 .note.GNU-stack
                0x0000000000000000        0x0 obj/syscalls.o
 .note.GNU-stack
                0x0000000000000000        0x0 obj/u2f_impl.o
 .note.GNU-stack
                0x0000000000000000        0x0 obj/u2f_io.o
 .note.GNU-stack
                0x0000000000000000        0x0 obj/u2f_transport.o
 .note.GNU-stack
                0x0000000000000000        0x0 obj/ui_common_getPublicKey.o
 .note.GNU-stack
                0x0000000000000000        0x0 obj/ui_common_signMessage.o
 .note.GNU-stack
                0x0000000000000000        0x0 obj/ui_common_signMessage712.o
 .note.GNU-stack
                0x0000000000000000        0x0 obj/ui_common_signTx.o
 .note.GNU-stack
                0x0000000000000000        0x0 obj/ui_common_stark_getPublicKey.o
 .note.GNU-stack
                0x0000000000000000        0x0 obj/ui_common_stark_sign.o
 .note.GNU-stack
                0x0000000000000000        0x0 obj/ui_common_stark_unsafe_sign.o
 .note.GNU-stack
                0x0000000000000000        0x0 obj/ui_flow.o
 .note.GNU-stack
                0x0000000000000000        0x0 obj/ui_flow_getPublicKey.o
 .note.GNU-stack
                0x0000000000000000        0x0 obj/ui_flow_signMessage.o
 .note.GNU-stack
                0x0000000000000000        0x0 obj/ui_flow_signMessage712.o
 .note.GNU-stack
                0x0000000000000000        0x0 obj/ui_flow_signTx.o
 .note.GNU-stack
                0x0000000000000000        0x0 obj/ui_flow_stark_getPublicKey.o
 .note.GNU-stack
                0x0000000000000000        0x0 obj/ui_flow_stark_sign.o
 .note.GNU-stack
                0x0000000000000000        0x0 obj/ui_flow_stark_unsafe_sign.o
 .note.GNU-stack
                0x0000000000000000        0x0 obj/uint256.o
 .note.GNU-stack
                0x0000000000000000        0x0 obj/usbd_conf.o
 .note.GNU-stack
                0x0000000000000000        0x0 obj/usbd_core.o
 .note.GNU-stack
                0x0000000000000000        0x0 obj/usbd_ctlreq.o
 .note.GNU-stack
                0x0000000000000000        0x0 obj/usbd_hid.o
 .note.GNU-stack
                0x0000000000000000        0x0 obj/usbd_impl.o
 .note.GNU-stack
                0x0000000000000000        0x0 obj/usbd_ioreq.o
 .note.GNU-stack
                0x0000000000000000        0x0 obj/utils.o
 .note.GNU-stack
                0x0000000000000000        0x0 obj/ux_flow_engine.o
 .note.GNU-stack
                0x0000000000000000        0x0 obj/ux_layout_bb.o
 .note.GNU-stack
                0x0000000000000000        0x0 obj/ux_layout_bn.o
 .note.GNU-stack
                0x0000000000000000        0x0 obj/ux_layout_nn.o
 .note.GNU-stack
                0x0000000000000000        0x0 obj/ux_layout_paging.o
 .note.GNU-stack
                0x0000000000000000        0x0 obj/ux_layout_pb.o
 .note.GNU-stack
                0x0000000000000000        0x0 obj/ux_layout_pbb.o
 .note.GNU-stack
                0x0000000000000000        0x0 obj/ux_layout_pnn.o
 .note.GNU-stack
                0x0000000000000000        0x0 obj/ux_layout_utils.o
 .note.GNU-stack
                0x0000000000000000        0x0 obj/ux_stack.o

.ARM.attributes
                0x0000000000000000       0x33
 .ARM.attributes
                0x0000000000000000       0x43 obj/base64.o
 .ARM.attributes
                0x0000000000000043       0x43 obj/checks.o
 .ARM.attributes
                0x0000000000000086       0x43 obj/cmd_getAppConfiguration.o
 .ARM.attributes
                0x00000000000000c9       0x43 obj/cmd_getPublicKey.o
 .ARM.attributes
                0x000000000000010c       0x43 obj/cmd_provideTokenInfo.o
 .ARM.attributes
                0x000000000000014f       0x43 obj/cmd_signMessage.o
 .ARM.attributes
                0x0000000000000192       0x43 obj/cmd_signMessage712.o
 .ARM.attributes
                0x00000000000001d5       0x43 obj/cmd_signTx.o
 .ARM.attributes
                0x0000000000000218       0x43 obj/cmd_stark_getPublicKey.o
 .ARM.attributes
                0x000000000000025b       0x43 obj/cmd_stark_provideQuantum.o
 .ARM.attributes
                0x000000000000029e       0x43 obj/cmd_stark_sign.o
 .ARM.attributes
                0x00000000000002e1       0x43 obj/cmd_stark_unsafe_sign.o
 .ARM.attributes
                0x0000000000000324       0x43 obj/compound_plugin.o
 .ARM.attributes
                0x0000000000000367       0x43 obj/erc20_plugin.o
 .ARM.attributes
                0x00000000000003aa       0x43 obj/erc721_plugin.o
 .ARM.attributes
                0x00000000000003ed       0x43 obj/ethUstream.o
 .ARM.attributes
                0x0000000000000430       0x43 obj/ethUtils.o
 .ARM.attributes
                0x0000000000000473       0x43 obj/eth_plugin_handler.o
 .ARM.attributes
                0x00000000000004b6       0x41 obj/eth_plugin_internal.o
 .ARM.attributes
                0x00000000000004f7       0x43 obj/eth_plugin_ui.o
 .ARM.attributes
                0x000000000000053a       0x41 obj/glyphs.o
 .ARM.attributes
                0x000000000000057b       0x43 obj/handle_check_address.o
 .ARM.attributes
                0x00000000000005be       0x43 obj/handle_get_printable_amount.o
 .ARM.attributes
                0x0000000000000601       0x43 obj/handle_swap_sign_transaction.o
 .ARM.attributes
                0x0000000000000644       0x43 obj/logic_getPublicKey.o
 .ARM.attributes
                0x0000000000000687       0x43 obj/logic_signTx.o
 .ARM.attributes
                0x00000000000006ca       0x43 obj/logic_stark_getPublicKey.o
 .ARM.attributes
                0x000000000000070d       0x43 obj/main.o
 .ARM.attributes
                0x0000000000000750       0x43 obj/os.o
 .ARM.attributes
                0x0000000000000793       0x43 obj/os_io_seproxyhal.o
 .ARM.attributes
                0x00000000000007d6       0x43 obj/os_io_usb.o
 .ARM.attributes
                0x0000000000000819       0x43 obj/os_printf.o
 .ARM.attributes
                0x000000000000085c       0x43 obj/pic.o
 .ARM.attributes
                0x000000000000089f       0x43 obj/pic_internal.o
 .ARM.attributes
                0x00000000000008e2       0x43 obj/poorstream.o
 .ARM.attributes
                0x0000000000000925       0x43 obj/stark_crypto.o
 .ARM.attributes
                0x0000000000000968       0x43 obj/stark_utils.o
 .ARM.attributes
                0x00000000000009ab       0x43 obj/starkware_plugin.o
 .ARM.attributes
                0x00000000000009ee       0x43 obj/syscalls.o
 .ARM.attributes
                0x0000000000000a31       0x43 obj/u2f_impl.o
 .ARM.attributes
                0x0000000000000a74       0x43 obj/u2f_io.o
 .ARM.attributes
                0x0000000000000ab7       0x43 obj/u2f_transport.o
 .ARM.attributes
                0x0000000000000afa       0x43 obj/ui_common_getPublicKey.o
 .ARM.attributes
                0x0000000000000b3d       0x43 obj/ui_common_signMessage.o
 .ARM.attributes
                0x0000000000000b80       0x43 obj/ui_common_signMessage712.o
 .ARM.attributes
                0x0000000000000bc3       0x43 obj/ui_common_signTx.o
 .ARM.attributes
                0x0000000000000c06       0x43 obj/ui_common_stark_getPublicKey.o
 .ARM.attributes
                0x0000000000000c49       0x43 obj/ui_common_stark_sign.o
 .ARM.attributes
                0x0000000000000c8c       0x43 obj/ui_common_stark_unsafe_sign.o
 .ARM.attributes
                0x0000000000000ccf       0x43 obj/ui_flow.o
 .ARM.attributes
                0x0000000000000d12       0x43 obj/ui_flow_getPublicKey.o
 .ARM.attributes
                0x0000000000000d55       0x43 obj/ui_flow_signMessage.o
 .ARM.attributes
                0x0000000000000d98       0x43 obj/ui_flow_signMessage712.o
 .ARM.attributes
                0x0000000000000ddb       0x43 obj/ui_flow_signTx.o
 .ARM.attributes
                0x0000000000000e1e       0x43 obj/ui_flow_stark_getPublicKey.o
 .ARM.attributes
                0x0000000000000e61       0x43 obj/ui_flow_stark_sign.o
 .ARM.attributes
                0x0000000000000ea4       0x43 obj/ui_flow_stark_unsafe_sign.o
 .ARM.attributes
                0x0000000000000ee7       0x43 obj/uint256.o
 .ARM.attributes
                0x0000000000000f2a       0x43 obj/usbd_conf.o
 .ARM.attributes
                0x0000000000000f6d       0x43 obj/usbd_core.o
 .ARM.attributes
                0x0000000000000fb0       0x43 obj/usbd_ctlreq.o
 .ARM.attributes
                0x0000000000000ff3       0x43 obj/usbd_hid.o
 .ARM.attributes
                0x0000000000001036       0x43 obj/usbd_impl.o
 .ARM.attributes
                0x0000000000001079       0x43 obj/usbd_ioreq.o
 .ARM.attributes
                0x00000000000010bc       0x43 obj/utils.o
 .ARM.attributes
                0x00000000000010ff       0x43 obj/ux_flow_engine.o
 .ARM.attributes
                0x0000000000001142       0x43 obj/ux_layout_bb.o
 .ARM.attributes
                0x0000000000001185       0x43 obj/ux_layout_bn.o
 .ARM.attributes
                0x00000000000011c8       0x43 obj/ux_layout_nn.o
 .ARM.attributes
                0x000000000000120b       0x43 obj/ux_layout_paging.o
 .ARM.attributes
                0x000000000000124e       0x43 obj/ux_layout_pb.o
 .ARM.attributes
                0x0000000000001291       0x43 obj/ux_layout_pbb.o
 .ARM.attributes
                0x00000000000012d4       0x43 obj/ux_layout_pnn.o
 .ARM.attributes
                0x0000000000001317       0x43 obj/ux_layout_utils.o
 .ARM.attributes
                0x000000000000135a       0x43 obj/ux_stack.o
 .ARM.attributes
                0x000000000000139d       0x1e /home/jingxu/workspace/ledgerApp/gcc-arm-none-eabi-10-2020-q4-major-x86_64-linux/gcc-arm-none-eabi-10-2020-q4-major/bin/../lib/gcc/arm-none-eabi/10.2.1/thumb/v6-m/nofp/libgcc.a(_udivsi3.o)
 .ARM.attributes
                0x00000000000013bb       0x1e /home/jingxu/workspace/ledgerApp/gcc-arm-none-eabi-10-2020-q4-major-x86_64-linux/gcc-arm-none-eabi-10-2020-q4-major/bin/../lib/gcc/arm-none-eabi/10.2.1/thumb/v6-m/nofp/libgcc.a(_dvmd_tls.o)
 .ARM.attributes
                0x00000000000013d9       0x1e /home/jingxu/workspace/ledgerApp/gcc-arm-none-eabi-10-2020-q4-major-x86_64-linux/gcc-arm-none-eabi-10-2020-q4-major/bin/../lib/gcc/arm-none-eabi/10.2.1/thumb/v6-m/nofp/libgcc.a(_lshrdi3.o)
 .ARM.attributes
                0x00000000000013f7       0x1e /home/jingxu/workspace/ledgerApp/gcc-arm-none-eabi-10-2020-q4-major-x86_64-linux/gcc-arm-none-eabi-10-2020-q4-major/bin/../lib/gcc/arm-none-eabi/10.2.1/thumb/v6-m/nofp/libgcc.a(_ashldi3.o)
 .ARM.attributes
                0x0000000000001415       0x2c /home/jingxu/workspace/ledgerApp/gcc-arm-none-eabi-10-2020-q4-major-x86_64-linux/gcc-arm-none-eabi-10-2020-q4-major/bin/../lib/gcc/arm-none-eabi/10.2.1/../../../../arm-none-eabi/lib/thumb/v6-m/nofp/libc.a(lib_a-aeabi_memclr.o)
 .ARM.attributes
                0x0000000000001441       0x2c /home/jingxu/workspace/ledgerApp/gcc-arm-none-eabi-10-2020-q4-major-x86_64-linux/gcc-arm-none-eabi-10-2020-q4-major/bin/../lib/gcc/arm-none-eabi/10.2.1/../../../../arm-none-eabi/lib/thumb/v6-m/nofp/libc.a(lib_a-aeabi_memcpy.o)
 .ARM.attributes
                0x000000000000146d       0x2c /home/jingxu/workspace/ledgerApp/gcc-arm-none-eabi-10-2020-q4-major-x86_64-linux/gcc-arm-none-eabi-10-2020-q4-major/bin/../lib/gcc/arm-none-eabi/10.2.1/../../../../arm-none-eabi/lib/thumb/v6-m/nofp/libc.a(lib_a-aeabi_memmove.o)
 .ARM.attributes
                0x0000000000001499       0x2c /home/jingxu/workspace/ledgerApp/gcc-arm-none-eabi-10-2020-q4-major-x86_64-linux/gcc-arm-none-eabi-10-2020-q4-major/bin/../lib/gcc/arm-none-eabi/10.2.1/../../../../arm-none-eabi/lib/thumb/v6-m/nofp/libc.a(lib_a-aeabi_memset.o)
 .ARM.attributes
                0x00000000000014c5       0x2c /home/jingxu/workspace/ledgerApp/gcc-arm-none-eabi-10-2020-q4-major-x86_64-linux/gcc-arm-none-eabi-10-2020-q4-major/bin/../lib/gcc/arm-none-eabi/10.2.1/../../../../arm-none-eabi/lib/thumb/v6-m/nofp/libc.a(lib_a-explicit_bzero.o)
 .ARM.attributes
                0x00000000000014f1       0x2c /home/jingxu/workspace/ledgerApp/gcc-arm-none-eabi-10-2020-q4-major-x86_64-linux/gcc-arm-none-eabi-10-2020-q4-major/bin/../lib/gcc/arm-none-eabi/10.2.1/../../../../arm-none-eabi/lib/thumb/v6-m/nofp/libc.a(lib_a-memcmp.o)
 .ARM.attributes
                0x000000000000151d       0x2c /home/jingxu/workspace/ledgerApp/gcc-arm-none-eabi-10-2020-q4-major-x86_64-linux/gcc-arm-none-eabi-10-2020-q4-major/bin/../lib/gcc/arm-none-eabi/10.2.1/../../../../arm-none-eabi/lib/thumb/v6-m/nofp/libc.a(lib_a-memcpy-stub.o)
 .ARM.attributes
                0x0000000000001549       0x2c /home/jingxu/workspace/ledgerApp/gcc-arm-none-eabi-10-2020-q4-major-x86_64-linux/gcc-arm-none-eabi-10-2020-q4-major/bin/../lib/gcc/arm-none-eabi/10.2.1/../../../../arm-none-eabi/lib/thumb/v6-m/nofp/libc.a(lib_a-memmove.o)
 .ARM.attributes
                0x0000000000001575       0x2c /home/jingxu/workspace/ledgerApp/gcc-arm-none-eabi-10-2020-q4-major-x86_64-linux/gcc-arm-none-eabi-10-2020-q4-major/bin/../lib/gcc/arm-none-eabi/10.2.1/../../../../arm-none-eabi/lib/thumb/v6-m/nofp/libc.a(lib_a-memset.o)
 .ARM.attributes
                0x00000000000015a1       0x1c /home/jingxu/workspace/ledgerApp/gcc-arm-none-eabi-10-2020-q4-major-x86_64-linux/gcc-arm-none-eabi-10-2020-q4-major/bin/../lib/gcc/arm-none-eabi/10.2.1/../../../../arm-none-eabi/lib/thumb/v6-m/nofp/libc.a(lib_a-setjmp.o)
 .ARM.attributes
                0x00000000000015bd       0x2c /home/jingxu/workspace/ledgerApp/gcc-arm-none-eabi-10-2020-q4-major-x86_64-linux/gcc-arm-none-eabi-10-2020-q4-major/bin/../lib/gcc/arm-none-eabi/10.2.1/../../../../arm-none-eabi/lib/thumb/v6-m/nofp/libc.a(lib_a-strcat.o)
 .ARM.attributes
                0x00000000000015e9       0x1b /home/jingxu/workspace/ledgerApp/gcc-arm-none-eabi-10-2020-q4-major-x86_64-linux/gcc-arm-none-eabi-10-2020-q4-major/bin/../lib/gcc/arm-none-eabi/10.2.1/../../../../arm-none-eabi/lib/thumb/v6-m/nofp/libc.a(lib_a-strcmp.o)
 .ARM.attributes
                0x0000000000001604       0x2c /home/jingxu/workspace/ledgerApp/gcc-arm-none-eabi-10-2020-q4-major-x86_64-linux/gcc-arm-none-eabi-10-2020-q4-major/bin/../lib/gcc/arm-none-eabi/10.2.1/../../../../arm-none-eabi/lib/thumb/v6-m/nofp/libc.a(lib_a-strcpy.o)
 .ARM.attributes
                0x0000000000001630       0x2c /home/jingxu/workspace/ledgerApp/gcc-arm-none-eabi-10-2020-q4-major-x86_64-linux/gcc-arm-none-eabi-10-2020-q4-major/bin/../lib/gcc/arm-none-eabi/10.2.1/../../../../arm-none-eabi/lib/thumb/v6-m/nofp/libc.a(lib_a-strlen-stub.o)
 .ARM.attributes
                0x000000000000165c       0x2c /home/jingxu/workspace/ledgerApp/gcc-arm-none-eabi-10-2020-q4-major-x86_64-linux/gcc-arm-none-eabi-10-2020-q4-major/bin/../lib/gcc/arm-none-eabi/10.2.1/../../../../arm-none-eabi/lib/thumb/v6-m/nofp/libc.a(lib_a-strncmp.o)
 .ARM.attributes
                0x0000000000001688       0x2c /home/jingxu/workspace/ledgerApp/gcc-arm-none-eabi-10-2020-q4-major-x86_64-linux/gcc-arm-none-eabi-10-2020-q4-major/bin/../lib/gcc/arm-none-eabi/10.2.1/../../../../arm-none-eabi/lib/thumb/v6-m/nofp/libc.a(lib_a-strncpy.o)
 .ARM.attributes
                0x00000000000016b4       0x2c /home/jingxu/workspace/ledgerApp/gcc-arm-none-eabi-10-2020-q4-major-x86_64-linux/gcc-arm-none-eabi-10-2020-q4-major/bin/../lib/gcc/arm-none-eabi/10.2.1/../../../../arm-none-eabi/lib/thumb/v6-m/nofp/libc.a(lib_a-strnlen.o)
 .ARM.attributes
                0x00000000000016e0       0x2c /home/jingxu/workspace/ledgerApp/gcc-arm-none-eabi-10-2020-q4-major-x86_64-linux/gcc-arm-none-eabi-10-2020-q4-major/bin/../lib/gcc/arm-none-eabi/10.2.1/../../../../arm-none-eabi/lib/thumb/v6-m/nofp/libc.a(lib_a-bzero.o)

.debug
 *(.debug)

.line
 *(.line)

.debug_srcinfo
 *(.debug_srcinfo)

.debug_sfnames
 *(.debug_sfnames)

.debug_aranges
 *(.debug_aranges)

.debug_pubnames
 *(.debug_pubnames)

.debug_info     0x0000000000000000    0x1f140
 *(.debug_info .gnu.linkonce.wi.*)
 .debug_info    0x0000000000000000       0xf3 obj/base64.o
 .debug_info    0x00000000000000f3      0x3a3 obj/checks.o
 .debug_info    0x0000000000000496      0x128 obj/cmd_getAppConfiguration.o
 .debug_info    0x00000000000005be      0x255 obj/cmd_getPublicKey.o
 .debug_info    0x0000000000000813      0x329 obj/cmd_provideTokenInfo.o
 .debug_info    0x0000000000000b3c      0x244 obj/cmd_signMessage.o
 .debug_info    0x0000000000000d80      0x106 obj/cmd_signMessage712.o
 .debug_info    0x0000000000000e86      0x268 obj/cmd_signTx.o
 .debug_info    0x00000000000010ee      0x259 obj/cmd_stark_getPublicKey.o
 .debug_info    0x0000000000001347      0x225 obj/cmd_stark_provideQuantum.o
 .debug_info    0x000000000000156c      0x508 obj/cmd_stark_sign.o
 .debug_info    0x0000000000001a74      0x2bf obj/cmd_stark_unsafe_sign.o
 .debug_info    0x0000000000001d33      0x9cf obj/compound_plugin.o
 .debug_info    0x0000000000002702      0xa87 obj/erc20_plugin.o
 .debug_info    0x0000000000003189      0x8c2 obj/erc721_plugin.o
 .debug_info    0x0000000000003a4b      0xa65 obj/ethUstream.o
 .debug_info    0x00000000000044b0      0xc5e obj/ethUtils.o
 .debug_info    0x000000000000510e      0xadd obj/eth_plugin_handler.o
 .debug_info    0x0000000000005beb      0x33b obj/eth_plugin_internal.o
 .debug_info    0x0000000000005f26      0x953 obj/eth_plugin_ui.o
 .debug_info    0x0000000000006879     0x10ee obj/glyphs.o
 .debug_info    0x0000000000007967      0x61c obj/handle_check_address.o
 .debug_info    0x0000000000007f83      0x29b obj/handle_get_printable_amount.o
 .debug_info    0x000000000000821e      0x373 obj/handle_swap_sign_transaction.o
 .debug_info    0x0000000000008591       0x6a obj/logic_getPublicKey.o
 .debug_info    0x00000000000085fb      0xbb2 obj/logic_signTx.o
 .debug_info    0x00000000000091ad       0x6b obj/logic_stark_getPublicKey.o
 .debug_info    0x0000000000009218     0x2118 obj/main.o
 .debug_info    0x000000000000b330      0x482 obj/os.o
 .debug_info    0x000000000000b7b2     0x14c3 obj/os_io_seproxyhal.o
 .debug_info    0x000000000000cc75      0x20e obj/os_io_usb.o
 .debug_info    0x000000000000ce83      0x389 obj/os_printf.o
 .debug_info    0x000000000000d20c       0x55 obj/pic.o
 .debug_info    0x000000000000d261       0x45 obj/pic_internal.o
 .debug_info    0x000000000000d2a6      0x16b obj/poorstream.o
 .debug_info    0x000000000000d411      0x3c8 obj/stark_crypto.o
 .debug_info    0x000000000000d7d9      0x69c obj/stark_utils.o
 .debug_info    0x000000000000de75      0xe38 obj/starkware_plugin.o
 .debug_info    0x000000000000ecad     0x3e08 obj/syscalls.o
 .debug_info    0x0000000000012ab5      0x7ca obj/u2f_impl.o
 .debug_info    0x000000000001327f       0xcf obj/u2f_io.o
 .debug_info    0x000000000001334e      0x875 obj/u2f_transport.o
 .debug_info    0x0000000000013bc3      0x20e obj/ui_common_getPublicKey.o
 .debug_info    0x0000000000013dd1      0x3dd obj/ui_common_signMessage.o
 .debug_info    0x00000000000141ae      0x454 obj/ui_common_signMessage712.o
 .debug_info    0x0000000000014602      0x475 obj/ui_common_signTx.o
 .debug_info    0x0000000000014a77      0x1e7 obj/ui_common_stark_getPublicKey.o
 .debug_info    0x0000000000014c5e      0x23f obj/ui_common_stark_sign.o
 .debug_info    0x0000000000014e9d      0x3aa obj/ui_common_stark_unsafe_sign.o
 .debug_info    0x0000000000015247      0x565 obj/ui_flow.o
 .debug_info    0x00000000000157ac      0x332 obj/ui_flow_getPublicKey.o
 .debug_info    0x0000000000015ade      0x340 obj/ui_flow_signMessage.o
 .debug_info    0x0000000000015e1e      0x3f8 obj/ui_flow_signMessage712.o
 .debug_info    0x0000000000016216      0x692 obj/ui_flow_signTx.o
 .debug_info    0x00000000000168a8      0x332 obj/ui_flow_stark_getPublicKey.o
 .debug_info    0x0000000000016bda      0x7c7 obj/ui_flow_stark_sign.o
 .debug_info    0x00000000000173a1      0x42d obj/ui_flow_stark_unsafe_sign.o
 .debug_info    0x00000000000177ce     0x1c02 obj/uint256.o
 .debug_info    0x00000000000193d0      0x996 obj/usbd_conf.o
 .debug_info    0x0000000000019d66      0xb5c obj/usbd_core.o
 .debug_info    0x000000000001a8c2      0xaf8 obj/usbd_ctlreq.o
 .debug_info    0x000000000001b3ba      0x6a7 obj/usbd_hid.o
 .debug_info    0x000000000001ba61      0xda4 obj/usbd_impl.o
 .debug_info    0x000000000001c805      0x745 obj/usbd_ioreq.o
 .debug_info    0x000000000001cf4a      0x4f1 obj/utils.o
 .debug_info    0x000000000001d43b      0x376 obj/ux_flow_engine.o
 .debug_info    0x000000000001d7b1      0x22b obj/ux_layout_bb.o
 .debug_info    0x000000000001d9dc      0x263 obj/ux_layout_bn.o
 .debug_info    0x000000000001dc3f      0x263 obj/ux_layout_nn.o
 .debug_info    0x000000000001dea2      0x467 obj/ux_layout_paging.o
 .debug_info    0x000000000001e309      0x2d0 obj/ux_layout_pb.o
 .debug_info    0x000000000001e5d9      0x325 obj/ux_layout_pbb.o
 .debug_info    0x000000000001e8fe      0x263 obj/ux_layout_pnn.o
 .debug_info    0x000000000001eb61      0x26d obj/ux_layout_utils.o
 .debug_info    0x000000000001edce      0x372 obj/ux_stack.o

.debug_abbrev   0x0000000000000000     0x5483
 *(.debug_abbrev)
 .debug_abbrev  0x0000000000000000       0x8e obj/base64.o
 .debug_abbrev  0x000000000000008e      0x117 obj/checks.o
 .debug_abbrev  0x00000000000001a5       0x7a obj/cmd_getAppConfiguration.o
 .debug_abbrev  0x000000000000021f       0xde obj/cmd_getPublicKey.o
 .debug_abbrev  0x00000000000002fd       0xf4 obj/cmd_provideTokenInfo.o
 .debug_abbrev  0x00000000000003f1       0xfb obj/cmd_signMessage.o
 .debug_abbrev  0x00000000000004ec       0x7a obj/cmd_signMessage712.o
 .debug_abbrev  0x0000000000000566       0x99 obj/cmd_signTx.o
 .debug_abbrev  0x00000000000005ff       0xde obj/cmd_stark_getPublicKey.o
 .debug_abbrev  0x00000000000006dd      0x122 obj/cmd_stark_provideQuantum.o
 .debug_abbrev  0x00000000000007ff      0x13d obj/cmd_stark_sign.o
 .debug_abbrev  0x000000000000093c       0xe9 obj/cmd_stark_unsafe_sign.o
 .debug_abbrev  0x0000000000000a25      0x17a obj/compound_plugin.o
 .debug_abbrev  0x0000000000000b9f      0x180 obj/erc20_plugin.o
 .debug_abbrev  0x0000000000000d1f      0x151 obj/erc721_plugin.o
 .debug_abbrev  0x0000000000000e70      0x1cd obj/ethUstream.o
 .debug_abbrev  0x000000000000103d      0x225 obj/ethUtils.o
 .debug_abbrev  0x0000000000001262      0x133 obj/eth_plugin_handler.o
 .debug_abbrev  0x0000000000001395       0xab obj/eth_plugin_internal.o
 .debug_abbrev  0x0000000000001440      0x15d obj/eth_plugin_ui.o
 .debug_abbrev  0x000000000000159d       0x9c obj/glyphs.o
 .debug_abbrev  0x0000000000001639      0x138 obj/handle_check_address.o
 .debug_abbrev  0x0000000000001771       0xcf obj/handle_get_printable_amount.o
 .debug_abbrev  0x0000000000001840       0xfd obj/handle_swap_sign_transaction.o
 .debug_abbrev  0x000000000000193d       0x50 obj/logic_getPublicKey.o
 .debug_abbrev  0x000000000000198d      0x195 obj/logic_signTx.o
 .debug_abbrev  0x0000000000001b22       0x52 obj/logic_stark_getPublicKey.o
 .debug_abbrev  0x0000000000001b74      0x2cb obj/main.o
 .debug_abbrev  0x0000000000001e3f      0x19c obj/os.o
 .debug_abbrev  0x0000000000001fdb      0x2b6 obj/os_io_seproxyhal.o
 .debug_abbrev  0x0000000000002291       0xf9 obj/os_io_usb.o
 .debug_abbrev  0x000000000000238a      0x135 obj/os_printf.o
 .debug_abbrev  0x00000000000024bf       0x45 obj/pic.o
 .debug_abbrev  0x0000000000002504       0x36 obj/pic_internal.o
 .debug_abbrev  0x000000000000253a       0x78 obj/poorstream.o
 .debug_abbrev  0x00000000000025b2      0x142 obj/stark_crypto.o
 .debug_abbrev  0x00000000000026f4      0x182 obj/stark_utils.o
 .debug_abbrev  0x0000000000002876      0x217 obj/starkware_plugin.o
 .debug_abbrev  0x0000000000002a8d      0x1d1 obj/syscalls.o
 .debug_abbrev  0x0000000000002c5e      0x17b obj/u2f_impl.o
 .debug_abbrev  0x0000000000002dd9       0x6b obj/u2f_io.o
 .debug_abbrev  0x0000000000002e44      0x1f2 obj/u2f_transport.o
 .debug_abbrev  0x0000000000003036       0xaa obj/ui_common_getPublicKey.o
 .debug_abbrev  0x00000000000030e0       0xf2 obj/ui_common_signMessage.o
 .debug_abbrev  0x00000000000031d2      0x101 obj/ui_common_signMessage712.o
 .debug_abbrev  0x00000000000032d3       0xf2 obj/ui_common_signTx.o
 .debug_abbrev  0x00000000000033c5       0xaa obj/ui_common_stark_getPublicKey.o
 .debug_abbrev  0x000000000000346f       0xd8 obj/ui_common_stark_sign.o
 .debug_abbrev  0x0000000000003547       0xe5 obj/ui_common_stark_unsafe_sign.o
 .debug_abbrev  0x000000000000362c       0xe9 obj/ui_flow.o
 .debug_abbrev  0x0000000000003715       0xb9 obj/ui_flow_getPublicKey.o
 .debug_abbrev  0x00000000000037ce       0xb9 obj/ui_flow_signMessage.o
 .debug_abbrev  0x0000000000003887       0xf3 obj/ui_flow_signMessage712.o
 .debug_abbrev  0x000000000000397a       0xb9 obj/ui_flow_signTx.o
 .debug_abbrev  0x0000000000003a33       0xb9 obj/ui_flow_stark_getPublicKey.o
 .debug_abbrev  0x0000000000003aec       0xf3 obj/ui_flow_stark_sign.o
 .debug_abbrev  0x0000000000003bdf       0xf3 obj/ui_flow_stark_unsafe_sign.o
 .debug_abbrev  0x0000000000003cd2      0x25c obj/uint256.o
 .debug_abbrev  0x0000000000003f2e      0x151 obj/usbd_conf.o
 .debug_abbrev  0x000000000000407f      0x1e3 obj/usbd_core.o
 .debug_abbrev  0x0000000000004262      0x1fc obj/usbd_ctlreq.o
 .debug_abbrev  0x000000000000445e       0xfc obj/usbd_hid.o
 .debug_abbrev  0x000000000000455a      0x19a obj/usbd_impl.o
 .debug_abbrev  0x00000000000046f4       0xed obj/usbd_ioreq.o
 .debug_abbrev  0x00000000000047e1      0x146 obj/utils.o
 .debug_abbrev  0x0000000000004927      0x1b3 obj/ux_flow_engine.o
 .debug_abbrev  0x0000000000004ada      0x10c obj/ux_layout_bb.o
 .debug_abbrev  0x0000000000004be6       0xcc obj/ux_layout_bn.o
 .debug_abbrev  0x0000000000004cb2       0xcc obj/ux_layout_nn.o
 .debug_abbrev  0x0000000000004d7e      0x1b7 obj/ux_layout_paging.o
 .debug_abbrev  0x0000000000004f35       0xef obj/ux_layout_pb.o
 .debug_abbrev  0x0000000000005024      0x132 obj/ux_layout_pbb.o
 .debug_abbrev  0x0000000000005156       0xcc obj/ux_layout_pnn.o
 .debug_abbrev  0x0000000000005222       0xf3 obj/ux_layout_utils.o
 .debug_abbrev  0x0000000000005315      0x16e obj/ux_stack.o

.debug_line     0x0000000000000000    0x10192
 *(.debug_line)
 .debug_line    0x0000000000000000      0x14a obj/base64.o
 .debug_line    0x000000000000014a      0x19a obj/checks.o
 .debug_line    0x00000000000002e4       0xd4 obj/cmd_getAppConfiguration.o
 .debug_line    0x00000000000003b8      0x165 obj/cmd_getPublicKey.o
 .debug_line    0x000000000000051d      0x1e5 obj/cmd_provideTokenInfo.o
 .debug_line    0x0000000000000702      0x216 obj/cmd_signMessage.o
 .debug_line    0x0000000000000918      0x136 obj/cmd_signMessage712.o
 .debug_line    0x0000000000000a4e      0x1ad obj/cmd_signTx.o
 .debug_line    0x0000000000000bfb      0x14d obj/cmd_stark_getPublicKey.o
 .debug_line    0x0000000000000d48      0x1f8 obj/cmd_stark_provideQuantum.o
 .debug_line    0x0000000000000f40      0x4a8 obj/cmd_stark_sign.o
 .debug_line    0x00000000000013e8      0x187 obj/cmd_stark_unsafe_sign.o
 .debug_line    0x000000000000156f      0x425 obj/compound_plugin.o
 .debug_line    0x0000000000001994      0x508 obj/erc20_plugin.o
 .debug_line    0x0000000000001e9c      0x374 obj/erc721_plugin.o
 .debug_line    0x0000000000002210      0x664 obj/ethUstream.o
 .debug_line    0x0000000000002874      0x7d7 obj/ethUtils.o
 .debug_line    0x000000000000304b      0x4b0 obj/eth_plugin_handler.o
 .debug_line    0x00000000000034fb       0x9c obj/eth_plugin_internal.o
 .debug_line    0x0000000000003597      0x3bd obj/eth_plugin_ui.o
 .debug_line    0x0000000000003954       0x71 obj/glyphs.o
 .debug_line    0x00000000000039c5      0x267 obj/handle_check_address.o
 .debug_line    0x0000000000003c2c      0x10a obj/handle_get_printable_amount.o
 .debug_line    0x0000000000003d36      0x172 obj/handle_swap_sign_transaction.o
 .debug_line    0x0000000000003ea8       0xb5 obj/logic_getPublicKey.o
 .debug_line    0x0000000000003f5d      0x714 obj/logic_signTx.o
 .debug_line    0x0000000000004671       0xa0 obj/logic_stark_getPublicKey.o
 .debug_line    0x0000000000004711      0xae8 obj/main.o
 .debug_line    0x00000000000051f9      0x404 obj/os.o
 .debug_line    0x00000000000055fd      0xcc7 obj/os_io_seproxyhal.o
 .debug_line    0x00000000000062c4      0x2be obj/os_io_usb.o
 .debug_line    0x0000000000006582      0x79e obj/os_printf.o
 .debug_line    0x0000000000006d20       0x84 obj/pic.o
 .debug_line    0x0000000000006da4       0x7b obj/pic_internal.o
 .debug_line    0x0000000000006e1f      0x175 obj/poorstream.o
 .debug_line    0x0000000000006f94      0x1cd obj/stark_crypto.o
 .debug_line    0x0000000000007161      0x32a obj/stark_utils.o
 .debug_line    0x000000000000748b      0x807 obj/starkware_plugin.o
 .debug_line    0x0000000000007c92     0x194a obj/syscalls.o
 .debug_line    0x00000000000095dc      0x3e8 obj/u2f_impl.o
 .debug_line    0x00000000000099c4      0x103 obj/u2f_io.o
 .debug_line    0x0000000000009ac7      0x862 obj/u2f_transport.o
 .debug_line    0x000000000000a329      0x148 obj/ui_common_getPublicKey.o
 .debug_line    0x000000000000a471      0x1b9 obj/ui_common_signMessage.o
 .debug_line    0x000000000000a62a      0x1dd obj/ui_common_signMessage712.o
 .debug_line    0x000000000000a807      0x258 obj/ui_common_signTx.o
 .debug_line    0x000000000000aa5f      0x12c obj/ui_common_stark_getPublicKey.o
 .debug_line    0x000000000000ab8b      0x129 obj/ui_common_stark_sign.o
 .debug_line    0x000000000000acb4      0x17a obj/ui_common_stark_unsafe_sign.o
 .debug_line    0x000000000000ae2e      0x248 obj/ui_flow.o
 .debug_line    0x000000000000b076      0x127 obj/ui_flow_getPublicKey.o
 .debug_line    0x000000000000b19d      0x125 obj/ui_flow_signMessage.o
 .debug_line    0x000000000000b2c2      0x1a6 obj/ui_flow_signMessage712.o
 .debug_line    0x000000000000b468      0x17a obj/ui_flow_signTx.o
 .debug_line    0x000000000000b5e2      0x133 obj/ui_flow_stark_getPublicKey.o
 .debug_line    0x000000000000b715      0x25c obj/ui_flow_stark_sign.o
 .debug_line    0x000000000000b971      0x1ab obj/ui_flow_stark_unsafe_sign.o
 .debug_line    0x000000000000bb1c     0x1462 obj/uint256.o
 .debug_line    0x000000000000cf7e      0x2e9 obj/usbd_conf.o
 .debug_line    0x000000000000d267      0x5f0 obj/usbd_core.o
 .debug_line    0x000000000000d857      0x769 obj/usbd_ctlreq.o
 .debug_line    0x000000000000dfc0      0x1cb obj/usbd_hid.o
 .debug_line    0x000000000000e18b      0x59d obj/usbd_impl.o
 .debug_line    0x000000000000e728      0x1b0 obj/usbd_ioreq.o
 .debug_line    0x000000000000e8d8      0x28b obj/utils.o
 .debug_line    0x000000000000eb63      0x62d obj/ux_flow_engine.o
 .debug_line    0x000000000000f190      0x115 obj/ux_layout_bb.o
 .debug_line    0x000000000000f2a5      0x116 obj/ux_layout_bn.o
 .debug_line    0x000000000000f3bb      0x116 obj/ux_layout_nn.o
 .debug_line    0x000000000000f4d1      0x3a3 obj/ux_layout_paging.o
 .debug_line    0x000000000000f874      0x16a obj/ux_layout_pb.o
 .debug_line    0x000000000000f9de      0x176 obj/ux_layout_pbb.o
 .debug_line    0x000000000000fb54      0x117 obj/ux_layout_pnn.o
 .debug_line    0x000000000000fc6b      0x163 obj/ux_layout_utils.o
 .debug_line    0x000000000000fdce      0x3c4 obj/ux_stack.o

.debug_frame    0x0000000000000000     0x3fbc
 *(.debug_frame)
 .debug_frame   0x0000000000000000       0x48 obj/base64.o
 .debug_frame   0x0000000000000048       0x40 obj/checks.o
 .debug_frame   0x0000000000000088       0x20 obj/cmd_getAppConfiguration.o
 .debug_frame   0x00000000000000a8       0x34 obj/cmd_getPublicKey.o
 .debug_frame   0x00000000000000dc       0x24 obj/cmd_provideTokenInfo.o
 .debug_frame   0x0000000000000100       0x30 obj/cmd_signMessage.o
 .debug_frame   0x0000000000000130       0x30 obj/cmd_signMessage712.o
 .debug_frame   0x0000000000000160       0x30 obj/cmd_signTx.o
 .debug_frame   0x0000000000000190       0x34 obj/cmd_stark_getPublicKey.o
 .debug_frame   0x00000000000001c4       0x24 obj/cmd_stark_provideQuantum.o
 .debug_frame   0x00000000000001e8       0x34 obj/cmd_stark_sign.o
 .debug_frame   0x000000000000021c       0x34 obj/cmd_stark_unsafe_sign.o
 .debug_frame   0x0000000000000250       0x50 obj/compound_plugin.o
 .debug_frame   0x00000000000002a0       0x60 obj/erc20_plugin.o
 .debug_frame   0x0000000000000300       0x40 obj/erc721_plugin.o
 .debug_frame   0x0000000000000340       0xec obj/ethUstream.o
 .debug_frame   0x000000000000042c       0xe8 obj/ethUtils.o
 .debug_frame   0x0000000000000514      0x100 obj/eth_plugin_handler.o
 .debug_frame   0x0000000000000614      0x120 obj/eth_plugin_ui.o
 .debug_frame   0x0000000000000734       0x34 obj/handle_check_address.o
 .debug_frame   0x0000000000000768       0x30 obj/handle_get_printable_amount.o
 .debug_frame   0x0000000000000798       0x54 obj/handle_swap_sign_transaction.o
 .debug_frame   0x00000000000007ec       0x2c obj/logic_getPublicKey.o
 .debug_frame   0x0000000000000818       0xd4 obj/logic_signTx.o
 .debug_frame   0x00000000000008ec       0x28 obj/logic_stark_getPublicKey.o
 .debug_frame   0x0000000000000914      0x1d4 obj/main.o
 .debug_frame   0x0000000000000ae8      0x114 obj/os.o
 .debug_frame   0x0000000000000bfc      0x328 obj/os_io_seproxyhal.o
 .debug_frame   0x0000000000000f24       0x78 obj/os_io_usb.o
 .debug_frame   0x0000000000000f9c       0x78 obj/os_printf.o
 .debug_frame   0x0000000000001014       0x28 obj/pic.o
 .debug_frame   0x000000000000103c       0x20 obj/pic_internal.o
 .debug_frame   0x000000000000105c       0x5c obj/poorstream.o
 .debug_frame   0x00000000000010b8       0x54 obj/stark_crypto.o
 .debug_frame   0x000000000000110c       0x94 obj/stark_utils.o
 .debug_frame   0x00000000000011a0      0x14c obj/starkware_plugin.o
 .debug_frame   0x00000000000012ec      0xec8 obj/syscalls.o
 .debug_frame   0x00000000000021b4       0xe8 obj/u2f_impl.o
 .debug_frame   0x000000000000229c       0x2c obj/u2f_io.o
 .debug_frame   0x00000000000022c8      0x13c obj/u2f_transport.o
 .debug_frame   0x0000000000002404       0x44 obj/ui_common_getPublicKey.o
 .debug_frame   0x0000000000002448       0x4c obj/ui_common_signMessage.o
 .debug_frame   0x0000000000002494       0x4c obj/ui_common_signMessage712.o
 .debug_frame   0x00000000000024e0       0x7c obj/ui_common_signTx.o
 .debug_frame   0x000000000000255c       0x2c obj/ui_common_stark_getPublicKey.o
 .debug_frame   0x0000000000002588       0x30 obj/ui_common_stark_sign.o
 .debug_frame   0x00000000000025b8       0x34 obj/ui_common_stark_unsafe_sign.o
 .debug_frame   0x00000000000025ec       0xe4 obj/ui_flow.o
 .debug_frame   0x00000000000026d0       0x40 obj/ui_flow_getPublicKey.o
 .debug_frame   0x0000000000002710       0x40 obj/ui_flow_signMessage.o
 .debug_frame   0x0000000000002750       0xb0 obj/ui_flow_signMessage712.o
 .debug_frame   0x0000000000002800       0xa0 obj/ui_flow_signTx.o
 .debug_frame   0x00000000000028a0       0x40 obj/ui_flow_stark_getPublicKey.o
 .debug_frame   0x00000000000028e0      0x114 obj/ui_flow_stark_sign.o
 .debug_frame   0x00000000000029f4       0xb0 obj/ui_flow_stark_unsafe_sign.o
 .debug_frame   0x0000000000002aa4      0x3cc obj/uint256.o
 .debug_frame   0x0000000000002e70      0x168 obj/usbd_conf.o
 .debug_frame   0x0000000000002fd8      0x1f0 obj/usbd_core.o
 .debug_frame   0x00000000000031c8      0x1a0 obj/usbd_ctlreq.o
 .debug_frame   0x0000000000003368       0x68 obj/usbd_hid.o
 .debug_frame   0x00000000000033d0      0x20c obj/usbd_impl.o
 .debug_frame   0x00000000000035dc       0xa8 obj/usbd_ioreq.o
 .debug_frame   0x0000000000003684       0xc4 obj/utils.o
 .debug_frame   0x0000000000003748      0x1c0 obj/ux_flow_engine.o
 .debug_frame   0x0000000000003908       0x40 obj/ux_layout_bb.o
 .debug_frame   0x0000000000003948       0x40 obj/ux_layout_bn.o
 .debug_frame   0x0000000000003988       0x40 obj/ux_layout_nn.o
 .debug_frame   0x00000000000039c8       0xb8 obj/ux_layout_paging.o
 .debug_frame   0x0000000000003a80       0x48 obj/ux_layout_pb.o
 .debug_frame   0x0000000000003ac8       0x60 obj/ux_layout_pbb.o
 .debug_frame   0x0000000000003b28       0x40 obj/ux_layout_pnn.o
 .debug_frame   0x0000000000003b68       0x58 obj/ux_layout_utils.o
 .debug_frame   0x0000000000003bc0      0x114 obj/ux_stack.o
 .debug_frame   0x0000000000003cd4       0x20 /home/jingxu/workspace/ledgerApp/gcc-arm-none-eabi-10-2020-q4-major-x86_64-linux/gcc-arm-none-eabi-10-2020-q4-major/bin/../lib/gcc/arm-none-eabi/10.2.1/thumb/v6-m/nofp/libgcc.a(_udivsi3.o)
 .debug_frame   0x0000000000003cf4       0x28 /home/jingxu/workspace/ledgerApp/gcc-arm-none-eabi-10-2020-q4-major-x86_64-linux/gcc-arm-none-eabi-10-2020-q4-major/bin/../lib/gcc/arm-none-eabi/10.2.1/../../../../arm-none-eabi/lib/thumb/v6-m/nofp/libc.a(lib_a-aeabi_memclr.o)
 .debug_frame   0x0000000000003d1c       0x28 /home/jingxu/workspace/ledgerApp/gcc-arm-none-eabi-10-2020-q4-major-x86_64-linux/gcc-arm-none-eabi-10-2020-q4-major/bin/../lib/gcc/arm-none-eabi/10.2.1/../../../../arm-none-eabi/lib/thumb/v6-m/nofp/libc.a(lib_a-aeabi_memcpy.o)
 .debug_frame   0x0000000000003d44       0x28 /home/jingxu/workspace/ledgerApp/gcc-arm-none-eabi-10-2020-q4-major-x86_64-linux/gcc-arm-none-eabi-10-2020-q4-major/bin/../lib/gcc/arm-none-eabi/10.2.1/../../../../arm-none-eabi/lib/thumb/v6-m/nofp/libc.a(lib_a-aeabi_memmove.o)
 .debug_frame   0x0000000000003d6c       0x28 /home/jingxu/workspace/ledgerApp/gcc-arm-none-eabi-10-2020-q4-major-x86_64-linux/gcc-arm-none-eabi-10-2020-q4-major/bin/../lib/gcc/arm-none-eabi/10.2.1/../../../../arm-none-eabi/lib/thumb/v6-m/nofp/libc.a(lib_a-aeabi_memset.o)
 .debug_frame   0x0000000000003d94       0x28 /home/jingxu/workspace/ledgerApp/gcc-arm-none-eabi-10-2020-q4-major-x86_64-linux/gcc-arm-none-eabi-10-2020-q4-major/bin/../lib/gcc/arm-none-eabi/10.2.1/../../../../arm-none-eabi/lib/thumb/v6-m/nofp/libc.a(lib_a-explicit_bzero.o)
 .debug_frame   0x0000000000003dbc       0x2c /home/jingxu/workspace/ledgerApp/gcc-arm-none-eabi-10-2020-q4-major-x86_64-linux/gcc-arm-none-eabi-10-2020-q4-major/bin/../lib/gcc/arm-none-eabi/10.2.1/../../../../arm-none-eabi/lib/thumb/v6-m/nofp/libc.a(lib_a-memcmp.o)
 .debug_frame   0x0000000000003de8       0x34 /home/jingxu/workspace/ledgerApp/gcc-arm-none-eabi-10-2020-q4-major-x86_64-linux/gcc-arm-none-eabi-10-2020-q4-major/bin/../lib/gcc/arm-none-eabi/10.2.1/../../../../arm-none-eabi/lib/thumb/v6-m/nofp/libc.a(lib_a-memcpy-stub.o)
 .debug_frame   0x0000000000003e1c       0x30 /home/jingxu/workspace/ledgerApp/gcc-arm-none-eabi-10-2020-q4-major-x86_64-linux/gcc-arm-none-eabi-10-2020-q4-major/bin/../lib/gcc/arm-none-eabi/10.2.1/../../../../arm-none-eabi/lib/thumb/v6-m/nofp/libc.a(lib_a-memmove.o)
 .debug_frame   0x0000000000003e4c       0x30 /home/jingxu/workspace/ledgerApp/gcc-arm-none-eabi-10-2020-q4-major-x86_64-linux/gcc-arm-none-eabi-10-2020-q4-major/bin/../lib/gcc/arm-none-eabi/10.2.1/../../../../arm-none-eabi/lib/thumb/v6-m/nofp/libc.a(lib_a-memset.o)
 .debug_frame   0x0000000000003e7c       0x2c /home/jingxu/workspace/ledgerApp/gcc-arm-none-eabi-10-2020-q4-major-x86_64-linux/gcc-arm-none-eabi-10-2020-q4-major/bin/../lib/gcc/arm-none-eabi/10.2.1/../../../../arm-none-eabi/lib/thumb/v6-m/nofp/libc.a(lib_a-strcat.o)
 .debug_frame   0x0000000000003ea8       0x20 /home/jingxu/workspace/ledgerApp/gcc-arm-none-eabi-10-2020-q4-major-x86_64-linux/gcc-arm-none-eabi-10-2020-q4-major/bin/../lib/gcc/arm-none-eabi/10.2.1/../../../../arm-none-eabi/lib/thumb/v6-m/nofp/libc.a(lib_a-strcmp.o)
 .debug_frame   0x0000000000003ec8       0x20 /home/jingxu/workspace/ledgerApp/gcc-arm-none-eabi-10-2020-q4-major-x86_64-linux/gcc-arm-none-eabi-10-2020-q4-major/bin/../lib/gcc/arm-none-eabi/10.2.1/../../../../arm-none-eabi/lib/thumb/v6-m/nofp/libc.a(lib_a-strcpy.o)
 .debug_frame   0x0000000000003ee8       0x28 /home/jingxu/workspace/ledgerApp/gcc-arm-none-eabi-10-2020-q4-major-x86_64-linux/gcc-arm-none-eabi-10-2020-q4-major/bin/../lib/gcc/arm-none-eabi/10.2.1/../../../../arm-none-eabi/lib/thumb/v6-m/nofp/libc.a(lib_a-strlen-stub.o)
 .debug_frame   0x0000000000003f10       0x2c /home/jingxu/workspace/ledgerApp/gcc-arm-none-eabi-10-2020-q4-major-x86_64-linux/gcc-arm-none-eabi-10-2020-q4-major/bin/../lib/gcc/arm-none-eabi/10.2.1/../../../../arm-none-eabi/lib/thumb/v6-m/nofp/libc.a(lib_a-strncmp.o)
 .debug_frame   0x0000000000003f3c       0x30 /home/jingxu/workspace/ledgerApp/gcc-arm-none-eabi-10-2020-q4-major-x86_64-linux/gcc-arm-none-eabi-10-2020-q4-major/bin/../lib/gcc/arm-none-eabi/10.2.1/../../../../arm-none-eabi/lib/thumb/v6-m/nofp/libc.a(lib_a-strncpy.o)
 .debug_frame   0x0000000000003f6c       0x28 /home/jingxu/workspace/ledgerApp/gcc-arm-none-eabi-10-2020-q4-major-x86_64-linux/gcc-arm-none-eabi-10-2020-q4-major/bin/../lib/gcc/arm-none-eabi/10.2.1/../../../../arm-none-eabi/lib/thumb/v6-m/nofp/libc.a(lib_a-strnlen.o)
 .debug_frame   0x0000000000003f94       0x28 /home/jingxu/workspace/ledgerApp/gcc-arm-none-eabi-10-2020-q4-major-x86_64-linux/gcc-arm-none-eabi-10-2020-q4-major/bin/../lib/gcc/arm-none-eabi/10.2.1/../../../../arm-none-eabi/lib/thumb/v6-m/nofp/libc.a(lib_a-bzero.o)

.debug_str      0x0000000000000000     0xb25d
 *(.debug_str)
 .debug_str     0x0000000000000000       0xaa obj/base64.o
                                         0xc0 (size before relaxing)
 .debug_str     0x00000000000000aa      0x646 obj/checks.o
                                        0x70f (size before relaxing)
 .debug_str     0x00000000000006f0       0xba obj/cmd_getAppConfiguration.o
                                        0x15c (size before relaxing)
 .debug_str     0x00000000000007aa      0x31e obj/cmd_getPublicKey.o
                                        0x401 (size before relaxing)
 .debug_str     0x0000000000000ac8      0x168 obj/cmd_provideTokenInfo.o
                                        0x4e7 (size before relaxing)
 .debug_str     0x0000000000000c30       0xcf obj/cmd_signMessage.o
                                        0x25e (size before relaxing)
 .debug_str     0x0000000000000cff       0x4c obj/cmd_signMessage712.o
                                        0x159 (size before relaxing)
 .debug_str     0x0000000000000d4b      0x377 obj/cmd_signTx.o
                                        0x498 (size before relaxing)
 .debug_str     0x00000000000010c2       0x55 obj/cmd_stark_getPublicKey.o
                                        0x416 (size before relaxing)
 .debug_str     0x0000000000001117      0x134 obj/cmd_stark_provideQuantum.o
                                        0x289 (size before relaxing)
 .debug_str     0x000000000000124b       0xd1 obj/cmd_stark_sign.o
                                        0x687 (size before relaxing)
 .debug_str     0x000000000000131c       0x51 obj/cmd_stark_unsafe_sign.o
                                        0x48d (size before relaxing)
 .debug_str     0x000000000000136d      0x483 obj/compound_plugin.o
                                        0x6b8 (size before relaxing)
 .debug_str     0x00000000000017f0      0x12f obj/erc20_plugin.o
                                        0x6ba (size before relaxing)
 .debug_str     0x000000000000191f       0x70 obj/erc721_plugin.o
                                        0x5e1 (size before relaxing)
 .debug_str     0x000000000000198f      0x26d obj/ethUstream.o
                                        0x66d (size before relaxing)
 .debug_str     0x0000000000001bfc      0x1f9 obj/ethUtils.o
                                        0xc21 (size before relaxing)
 .debug_str     0x0000000000001df5      0x23a obj/eth_plugin_handler.o
                                        0x7bb (size before relaxing)
 .debug_str     0x000000000000202f      0x2f8 obj/eth_plugin_internal.o
                                        0x3c8 (size before relaxing)
 .debug_str     0x0000000000002327      0x566 obj/eth_plugin_ui.o
                                        0x9bc (size before relaxing)
 .debug_str     0x000000000000288d     0x1485 obj/glyphs.o
                                       0x1553 (size before relaxing)
 .debug_str     0x0000000000003d12      0x141 obj/handle_check_address.o
                                        0x8e5 (size before relaxing)
 .debug_str     0x0000000000003e53       0x94 obj/handle_get_printable_amount.o
                                        0x450 (size before relaxing)
 .debug_str     0x0000000000003ee7      0x148 obj/handle_swap_sign_transaction.o
                                        0x522 (size before relaxing)
 .debug_str     0x000000000000402f       0x48 obj/logic_getPublicKey.o
                                         0xc4 (size before relaxing)
 .debug_str     0x0000000000004077      0x18c obj/logic_signTx.o
                                        0x8fe (size before relaxing)
 .debug_str     0x0000000000004203       0x5a obj/logic_stark_getPublicKey.o
                                         0xd6 (size before relaxing)
 .debug_str     0x000000000000425d      0xa21 obj/main.o
                                       0x1e1e (size before relaxing)
 .debug_str     0x0000000000004c7e      0x168 obj/os.o
                                        0x23c (size before relaxing)
 .debug_str     0x0000000000004de6      0x8f5 obj/os_io_seproxyhal.o
                                       0x164a (size before relaxing)
 .debug_str     0x00000000000056db      0x19b obj/os_io_usb.o
                                        0x2da (size before relaxing)
 .debug_str     0x0000000000005876      0x13c obj/os_printf.o
                                        0x1f5 (size before relaxing)
 .debug_str     0x00000000000059b2       0x4d obj/pic.o
                                         0xb2 (size before relaxing)
 .debug_str     0x00000000000059ff       0x52 obj/pic_internal.o
                                         0xb7 (size before relaxing)
 .debug_str     0x0000000000005a51       0x51 obj/poorstream.o
                                        0x155 (size before relaxing)
 .debug_str     0x0000000000005aa2       0x92 obj/stark_crypto.o
                                        0x471 (size before relaxing)
 .debug_str     0x0000000000005b34      0x126 obj/stark_utils.o
                                        0x6ef (size before relaxing)
 .debug_str     0x0000000000005c5a      0x34a obj/starkware_plugin.o
                                        0xbd2 (size before relaxing)
 .debug_str     0x0000000000005fa4      0xeaf obj/syscalls.o
                                       0x1c00 (size before relaxing)
 .debug_str     0x0000000000006e53      0x19e obj/u2f_impl.o
                                        0x68f (size before relaxing)
 .debug_str     0x0000000000006ff1       0x56 obj/u2f_io.o
                                        0x154 (size before relaxing)
 .debug_str     0x0000000000007047      0x25e obj/u2f_transport.o
                                        0x6df (size before relaxing)
 .debug_str     0x00000000000072a5       0x75 obj/ui_common_getPublicKey.o
                                        0x24a (size before relaxing)
 .debug_str     0x000000000000731a       0x7b obj/ui_common_signMessage.o
                                        0x5ca (size before relaxing)
 .debug_str     0x0000000000007395       0x9e obj/ui_common_signMessage712.o
                                        0x622 (size before relaxing)
 .debug_str     0x0000000000007433       0x9b obj/ui_common_signTx.o
                                        0x648 (size before relaxing)
 .debug_str     0x00000000000074ce       0x63 obj/ui_common_stark_getPublicKey.o
                                        0x238 (size before relaxing)
 .debug_str     0x0000000000007531       0x4c obj/ui_common_stark_sign.o
                                        0x260 (size before relaxing)
 .debug_str     0x000000000000757d       0x66 obj/ui_common_stark_unsafe_sign.o
                                        0x5a5 (size before relaxing)
 .debug_str     0x00000000000075e3      0x420 obj/ui_flow.o
                                        0x623 (size before relaxing)
 .debug_str     0x0000000000007a03      0x244 obj/ui_flow_getPublicKey.o
                                        0x423 (size before relaxing)
 .debug_str     0x0000000000007c47      0x1ac obj/ui_flow_signMessage.o
                                        0x38d (size before relaxing)
 .debug_str     0x0000000000007df3      0x2c7 obj/ui_flow_signMessage712.o
                                        0x4a8 (size before relaxing)
 .debug_str     0x00000000000080ba      0x6fd obj/ui_flow_signTx.o
                                        0x936 (size before relaxing)
 .debug_str     0x00000000000087b7      0x2aa obj/ui_flow_stark_getPublicKey.o
                                        0x489 (size before relaxing)
 .debug_str     0x0000000000008a61      0x8a4 obj/ui_flow_stark_sign.o
                                        0xac3 (size before relaxing)
 .debug_str     0x0000000000009305      0x2f4 obj/ui_flow_stark_unsafe_sign.o
                                        0x501 (size before relaxing)
 .debug_str     0x00000000000095f9      0x1fd obj/uint256.o
                                        0x377 (size before relaxing)
 .debug_str     0x00000000000097f6      0x63d obj/usbd_conf.o
                                        0x7c7 (size before relaxing)
 .debug_str     0x0000000000009e33      0x222 obj/usbd_core.o
                                        0x88d (size before relaxing)
 .debug_str     0x000000000000a055      0x171 obj/usbd_ctlreq.o
                                        0x810 (size before relaxing)
 .debug_str     0x000000000000a1c6       0x9b obj/usbd_hid.o
                                        0x6fa (size before relaxing)
 .debug_str     0x000000000000a261      0x3b7 obj/usbd_impl.o
                                        0xbd4 (size before relaxing)
 .debug_str     0x000000000000a618       0xe3 obj/usbd_ioreq.o
                                        0x746 (size before relaxing)
 .debug_str     0x000000000000a6fb       0xc6 obj/utils.o
                                        0x2ea (size before relaxing)
 .debug_str     0x000000000000a7c1      0x217 obj/ux_flow_engine.o
                                        0x317 (size before relaxing)
 .debug_str     0x000000000000a9d8       0x8d obj/ux_layout_bb.o
                                        0x268 (size before relaxing)
 .debug_str     0x000000000000aa65      0x291 obj/ux_layout_bn.o
                                        0x462 (size before relaxing)
 .debug_str     0x000000000000acf6       0x72 obj/ux_layout_nn.o
                                        0x462 (size before relaxing)
 .debug_str     0x000000000000ad68      0x159 obj/ux_layout_paging.o
                                        0x3a3 (size before relaxing)
 .debug_str     0x000000000000aec1       0x88 obj/ux_layout_pb.o
                                        0x2e3 (size before relaxing)
 .debug_str     0x000000000000af49       0xe6 obj/ux_layout_pbb.o
                                        0x315 (size before relaxing)
 .debug_str     0x000000000000b02f       0x75 obj/ux_layout_pnn.o
                                        0x465 (size before relaxing)
 .debug_str     0x000000000000b0a4       0x9f obj/ux_layout_utils.o
                                        0x2c8 (size before relaxing)
 .debug_str     0x000000000000b143      0x11a obj/ux_stack.o
                                        0x398 (size before relaxing)

.debug_loc      0x0000000000000000     0xbd7e
 *(.debug_loc)
 .debug_loc     0x0000000000000000      0x104 obj/base64.o
 .debug_loc     0x0000000000000104       0xa1 obj/checks.o
 .debug_loc     0x00000000000001a5       0x74 obj/cmd_getAppConfiguration.o
 .debug_loc     0x0000000000000219      0x131 obj/cmd_getPublicKey.o
 .debug_loc     0x000000000000034a      0x130 obj/cmd_provideTokenInfo.o
 .debug_loc     0x000000000000047a      0x1b3 obj/cmd_signMessage.o
 .debug_loc     0x000000000000062d      0x102 obj/cmd_signMessage712.o
 .debug_loc     0x000000000000072f      0x112 obj/cmd_signTx.o
 .debug_loc     0x0000000000000841      0x14f obj/cmd_stark_getPublicKey.o
 .debug_loc     0x0000000000000990      0x112 obj/cmd_stark_provideQuantum.o
 .debug_loc     0x0000000000000aa2      0x32e obj/cmd_stark_sign.o
 .debug_loc     0x0000000000000dd0      0x137 obj/cmd_stark_unsafe_sign.o
 .debug_loc     0x0000000000000f07      0x2af obj/compound_plugin.o
 .debug_loc     0x00000000000011b6      0x328 obj/erc20_plugin.o
 .debug_loc     0x00000000000014de      0x1d5 obj/erc721_plugin.o
 .debug_loc     0x00000000000016b3      0x4ce obj/ethUstream.o
 .debug_loc     0x0000000000001b81      0x6dc obj/ethUtils.o
 .debug_loc     0x000000000000225d      0x4dd obj/eth_plugin_handler.o
 .debug_loc     0x000000000000273a       0x7a obj/eth_plugin_ui.o
 .debug_loc     0x00000000000027b4      0x12e obj/handle_check_address.o
 .debug_loc     0x00000000000028e2       0x9c obj/handle_get_printable_amount.o
 .debug_loc     0x000000000000297e       0x85 obj/handle_swap_sign_transaction.o
 .debug_loc     0x0000000000002a03       0x38 obj/logic_getPublicKey.o
 .debug_loc     0x0000000000002a3b      0x4d6 obj/logic_signTx.o
 .debug_loc     0x0000000000002f11       0x1f obj/logic_stark_getPublicKey.o
 .debug_loc     0x0000000000002f30      0x58a obj/main.o
 .debug_loc     0x00000000000034ba      0x546 obj/os.o
 .debug_loc     0x0000000000003a00      0x67c obj/os_io_seproxyhal.o
 .debug_loc     0x000000000000407c      0x118 obj/os_io_usb.o
 .debug_loc     0x0000000000004194      0xbbe obj/os_printf.o
 .debug_loc     0x0000000000004d52       0x13 obj/pic.o
 .debug_loc     0x0000000000004d65       0xba obj/poorstream.o
 .debug_loc     0x0000000000004e1f      0x259 obj/stark_crypto.o
 .debug_loc     0x0000000000005078      0x35b obj/stark_utils.o
 .debug_loc     0x00000000000053d3      0x6c7 obj/starkware_plugin.o
 .debug_loc     0x0000000000005a9a     0x1ff4 obj/syscalls.o
 .debug_loc     0x0000000000007a8e      0x419 obj/u2f_impl.o
 .debug_loc     0x0000000000007ea7       0x70 obj/u2f_io.o
 .debug_loc     0x0000000000007f17      0x579 obj/u2f_transport.o
 .debug_loc     0x0000000000008490       0x26 obj/ui_common_getPublicKey.o
 .debug_loc     0x00000000000084b6       0x8f obj/ui_common_signMessage.o
 .debug_loc     0x0000000000008545       0x8f obj/ui_common_signMessage712.o
 .debug_loc     0x00000000000085d4       0xd0 obj/ui_common_signTx.o
 .debug_loc     0x00000000000086a4       0x13 obj/ui_common_stark_getPublicKey.o
 .debug_loc     0x00000000000086b7       0x3e obj/ui_common_stark_sign.o
 .debug_loc     0x00000000000086f5       0x72 obj/ui_common_stark_unsafe_sign.o
 .debug_loc     0x0000000000008767       0x3e obj/ui_flow.o
 .debug_loc     0x00000000000087a5       0x52 obj/ui_flow_signMessage712.o
 .debug_loc     0x00000000000087f7       0x7b obj/ui_flow_stark_sign.o
 .debug_loc     0x0000000000008872       0x52 obj/ui_flow_stark_unsafe_sign.o
 .debug_loc     0x00000000000088c4     0x18db obj/uint256.o
 .debug_loc     0x000000000000a19f      0x225 obj/usbd_conf.o
 .debug_loc     0x000000000000a3c4      0x493 obj/usbd_core.o
 .debug_loc     0x000000000000a857      0x626 obj/usbd_ctlreq.o
 .debug_loc     0x000000000000ae7d      0x111 obj/usbd_hid.o
 .debug_loc     0x000000000000af8e      0x2b5 obj/usbd_impl.o
 .debug_loc     0x000000000000b243      0x12b obj/usbd_ioreq.o
 .debug_loc     0x000000000000b36e      0x33e obj/utils.o
 .debug_loc     0x000000000000b6ac      0x14c obj/ux_flow_engine.o
 .debug_loc     0x000000000000b7f8       0x5a obj/ux_layout_bb.o
 .debug_loc     0x000000000000b852       0x44 obj/ux_layout_bn.o
 .debug_loc     0x000000000000b896       0x44 obj/ux_layout_nn.o
 .debug_loc     0x000000000000b8da      0x22c obj/ux_layout_paging.o
 .debug_loc     0x000000000000bb06       0x4f obj/ux_layout_pb.o
 .debug_loc     0x000000000000bb55       0x8b obj/ux_layout_pbb.o
 .debug_loc     0x000000000000bbe0       0x44 obj/ux_layout_pnn.o
 .debug_loc     0x000000000000bc24       0x6a obj/ux_layout_utils.o
 .debug_loc     0x000000000000bc8e       0xf0 obj/ux_stack.o

.debug_macinfo  0x0000000000000000       0x4b
 *(.debug_macinfo)
 .debug_macinfo
                0x0000000000000000        0x1 obj/base64.o
 .debug_macinfo
                0x0000000000000001        0x1 obj/checks.o
 .debug_macinfo
                0x0000000000000002        0x1 obj/cmd_getAppConfiguration.o
 .debug_macinfo
                0x0000000000000003        0x1 obj/cmd_getPublicKey.o
 .debug_macinfo
                0x0000000000000004        0x1 obj/cmd_provideTokenInfo.o
 .debug_macinfo
                0x0000000000000005        0x1 obj/cmd_signMessage.o
 .debug_macinfo
                0x0000000000000006        0x1 obj/cmd_signMessage712.o
 .debug_macinfo
                0x0000000000000007        0x1 obj/cmd_signTx.o
 .debug_macinfo
                0x0000000000000008        0x1 obj/cmd_stark_getPublicKey.o
 .debug_macinfo
                0x0000000000000009        0x1 obj/cmd_stark_provideQuantum.o
 .debug_macinfo
                0x000000000000000a        0x1 obj/cmd_stark_sign.o
 .debug_macinfo
                0x000000000000000b        0x1 obj/cmd_stark_unsafe_sign.o
 .debug_macinfo
                0x000000000000000c        0x1 obj/compound_plugin.o
 .debug_macinfo
                0x000000000000000d        0x1 obj/erc20_plugin.o
 .debug_macinfo
                0x000000000000000e        0x1 obj/erc721_plugin.o
 .debug_macinfo
                0x000000000000000f        0x1 obj/ethUstream.o
 .debug_macinfo
                0x0000000000000010        0x1 obj/ethUtils.o
 .debug_macinfo
                0x0000000000000011        0x1 obj/eth_plugin_handler.o
 .debug_macinfo
                0x0000000000000012        0x1 obj/eth_plugin_internal.o
 .debug_macinfo
                0x0000000000000013        0x1 obj/eth_plugin_ui.o
 .debug_macinfo
                0x0000000000000014        0x1 obj/glyphs.o
 .debug_macinfo
                0x0000000000000015        0x1 obj/handle_check_address.o
 .debug_macinfo
                0x0000000000000016        0x1 obj/handle_get_printable_amount.o
 .debug_macinfo
                0x0000000000000017        0x1 obj/handle_swap_sign_transaction.o
 .debug_macinfo
                0x0000000000000018        0x1 obj/logic_getPublicKey.o
 .debug_macinfo
                0x0000000000000019        0x1 obj/logic_signTx.o
 .debug_macinfo
                0x000000000000001a        0x1 obj/logic_stark_getPublicKey.o
 .debug_macinfo
                0x000000000000001b        0x1 obj/main.o
 .debug_macinfo
                0x000000000000001c        0x1 obj/os.o
 .debug_macinfo
                0x000000000000001d        0x1 obj/os_io_seproxyhal.o
 .debug_macinfo
                0x000000000000001e        0x1 obj/os_io_usb.o
 .debug_macinfo
                0x000000000000001f        0x1 obj/os_printf.o
 .debug_macinfo
                0x0000000000000020        0x1 obj/pic.o
 .debug_macinfo
                0x0000000000000021        0x1 obj/pic_internal.o
 .debug_macinfo
                0x0000000000000022        0x1 obj/poorstream.o
 .debug_macinfo
                0x0000000000000023        0x1 obj/stark_crypto.o
 .debug_macinfo
                0x0000000000000024        0x1 obj/stark_utils.o
 .debug_macinfo
                0x0000000000000025        0x1 obj/starkware_plugin.o
 .debug_macinfo
                0x0000000000000026        0x1 obj/syscalls.o
 .debug_macinfo
                0x0000000000000027        0x1 obj/u2f_impl.o
 .debug_macinfo
                0x0000000000000028        0x1 obj/u2f_io.o
 .debug_macinfo
                0x0000000000000029        0x1 obj/u2f_transport.o
 .debug_macinfo
                0x000000000000002a        0x1 obj/ui_common_getPublicKey.o
 .debug_macinfo
                0x000000000000002b        0x1 obj/ui_common_signMessage.o
 .debug_macinfo
                0x000000000000002c        0x1 obj/ui_common_signMessage712.o
 .debug_macinfo
                0x000000000000002d        0x1 obj/ui_common_signTx.o
 .debug_macinfo
                0x000000000000002e        0x1 obj/ui_common_stark_getPublicKey.o
 .debug_macinfo
                0x000000000000002f        0x1 obj/ui_common_stark_sign.o
 .debug_macinfo
                0x0000000000000030        0x1 obj/ui_common_stark_unsafe_sign.o
 .debug_macinfo
                0x0000000000000031        0x1 obj/ui_flow.o
 .debug_macinfo
                0x0000000000000032        0x1 obj/ui_flow_getPublicKey.o
 .debug_macinfo
                0x0000000000000033        0x1 obj/ui_flow_signMessage.o
 .debug_macinfo
                0x0000000000000034        0x1 obj/ui_flow_signMessage712.o
 .debug_macinfo
                0x0000000000000035        0x1 obj/ui_flow_signTx.o
 .debug_macinfo
                0x0000000000000036        0x1 obj/ui_flow_stark_getPublicKey.o
 .debug_macinfo
                0x0000000000000037        0x1 obj/ui_flow_stark_sign.o
 .debug_macinfo
                0x0000000000000038        0x1 obj/ui_flow_stark_unsafe_sign.o
 .debug_macinfo
                0x0000000000000039        0x1 obj/uint256.o
 .debug_macinfo
                0x000000000000003a        0x1 obj/usbd_conf.o
 .debug_macinfo
                0x000000000000003b        0x1 obj/usbd_core.o
 .debug_macinfo
                0x000000000000003c        0x1 obj/usbd_ctlreq.o
 .debug_macinfo
                0x000000000000003d        0x1 obj/usbd_hid.o
 .debug_macinfo
                0x000000000000003e        0x1 obj/usbd_impl.o
 .debug_macinfo
                0x000000000000003f        0x1 obj/usbd_ioreq.o
 .debug_macinfo
                0x0000000000000040        0x1 obj/utils.o
 .debug_macinfo
                0x0000000000000041        0x1 obj/ux_flow_engine.o
 .debug_macinfo
                0x0000000000000042        0x1 obj/ux_layout_bb.o
 .debug_macinfo
                0x0000000000000043        0x1 obj/ux_layout_bn.o
 .debug_macinfo
                0x0000000000000044        0x1 obj/ux_layout_nn.o
 .debug_macinfo
                0x0000000000000045        0x1 obj/ux_layout_paging.o
 .debug_macinfo
                0x0000000000000046        0x1 obj/ux_layout_pb.o
 .debug_macinfo
                0x0000000000000047        0x1 obj/ux_layout_pbb.o
 .debug_macinfo
                0x0000000000000048        0x1 obj/ux_layout_pnn.o
 .debug_macinfo
                0x0000000000000049        0x1 obj/ux_layout_utils.o
 .debug_macinfo
                0x000000000000004a        0x1 obj/ux_stack.o

.debug_weaknames
 *(.debug_weaknames)

.debug_funcnames
 *(.debug_funcnames)

.debug_typenames
 *(.debug_typenames)

.debug_varnames
 *(.debug_varnames)
OUTPUT(bin/app.elf elf32-littlearm)
LOAD linker stubs
LOAD /home/jingxu/workspace/ledgerApp/gcc-arm-none-eabi-10-2020-q4-major-x86_64-linux/gcc-arm-none-eabi-10-2020-q4-major/bin/../lib/gcc/arm-none-eabi/10.2.1/../../../../arm-none-eabi/lib/thumb/v6-m/nofp/libc.a
LOAD /home/jingxu/workspace/ledgerApp/gcc-arm-none-eabi-10-2020-q4-major-x86_64-linux/gcc-arm-none-eabi-10-2020-q4-major/bin/../lib/gcc/arm-none-eabi/10.2.1/../../../../arm-none-eabi/lib/thumb/v6-m/nofp/libm.a
LOAD /home/jingxu/workspace/ledgerApp/gcc-arm-none-eabi-10-2020-q4-major-x86_64-linux/gcc-arm-none-eabi-10-2020-q4-major/bin/../lib/gcc/arm-none-eabi/10.2.1/thumb/v6-m/nofp/libgcc.a

.debug_ranges   0x0000000000000000     0x1ed8
 .debug_ranges  0x0000000000000000       0x18 obj/base64.o
 .debug_ranges  0x0000000000000018       0x18 obj/checks.o
 .debug_ranges  0x0000000000000030       0x20 obj/cmd_signMessage.o
 .debug_ranges  0x0000000000000050       0xe0 obj/compound_plugin.o
 .debug_ranges  0x0000000000000130       0xa8 obj/erc20_plugin.o
 .debug_ranges  0x00000000000001d8       0x90 obj/erc721_plugin.o
 .debug_ranges  0x0000000000000268      0x198 obj/ethUstream.o
 .debug_ranges  0x0000000000000400       0xa0 obj/ethUtils.o
 .debug_ranges  0x00000000000004a0       0xa0 obj/eth_plugin_handler.o
 .debug_ranges  0x0000000000000540       0x60 obj/eth_plugin_ui.o
 .debug_ranges  0x00000000000005a0       0x18 obj/handle_swap_sign_transaction.o
 .debug_ranges  0x00000000000005b8       0xa0 obj/logic_signTx.o
 .debug_ranges  0x0000000000000658      0x120 obj/main.o
 .debug_ranges  0x0000000000000778       0x88 obj/os.o
 .debug_ranges  0x0000000000000800      0x138 obj/os_io_seproxyhal.o
 .debug_ranges  0x0000000000000938       0x40 obj/os_io_usb.o
 .debug_ranges  0x0000000000000978       0x20 obj/os_printf.o
 .debug_ranges  0x0000000000000998       0x20 obj/poorstream.o
 .debug_ranges  0x00000000000009b8       0x30 obj/stark_crypto.o
 .debug_ranges  0x00000000000009e8       0x40 obj/stark_utils.o
 .debug_ranges  0x0000000000000a28      0x1a0 obj/starkware_plugin.o
 .debug_ranges  0x0000000000000bc8      0x440 obj/syscalls.o
 .debug_ranges  0x0000000000001008       0x48 obj/u2f_impl.o
 .debug_ranges  0x0000000000001050       0xe0 obj/u2f_transport.o
 .debug_ranges  0x0000000000001130       0x18 obj/ui_common_getPublicKey.o
 .debug_ranges  0x0000000000001148       0x18 obj/ui_common_signMessage.o
 .debug_ranges  0x0000000000001160       0x18 obj/ui_common_signMessage712.o
 .debug_ranges  0x0000000000001178       0x28 obj/ui_common_signTx.o
 .debug_ranges  0x00000000000011a0       0x48 obj/ui_flow.o
 .debug_ranges  0x00000000000011e8       0x18 obj/ui_flow_getPublicKey.o
 .debug_ranges  0x0000000000001200       0x18 obj/ui_flow_signMessage.o
 .debug_ranges  0x0000000000001218       0x38 obj/ui_flow_signMessage712.o
 .debug_ranges  0x0000000000001250       0x38 obj/ui_flow_signTx.o
 .debug_ranges  0x0000000000001288       0x18 obj/ui_flow_stark_getPublicKey.o
 .debug_ranges  0x00000000000012a0       0x58 obj/ui_flow_stark_sign.o
 .debug_ranges  0x00000000000012f8       0x38 obj/ui_flow_stark_unsafe_sign.o
 .debug_ranges  0x0000000000001330      0x6a0 obj/uint256.o
 .debug_ranges  0x00000000000019d0       0x70 obj/usbd_conf.o
 .debug_ranges  0x0000000000001a40       0xb0 obj/usbd_core.o
 .debug_ranges  0x0000000000001af0       0x88 obj/usbd_ctlreq.o
 .debug_ranges  0x0000000000001b78       0x20 obj/usbd_hid.o
 .debug_ranges  0x0000000000001b98       0xc8 obj/usbd_impl.o
 .debug_ranges  0x0000000000001c60       0x38 obj/usbd_ioreq.o
 .debug_ranges  0x0000000000001c98       0x38 obj/utils.o
 .debug_ranges  0x0000000000001cd0       0x90 obj/ux_flow_engine.o
 .debug_ranges  0x0000000000001d60       0x18 obj/ux_layout_bb.o
 .debug_ranges  0x0000000000001d78       0x18 obj/ux_layout_bn.o
 .debug_ranges  0x0000000000001d90       0x18 obj/ux_layout_nn.o
 .debug_ranges  0x0000000000001da8       0x68 obj/ux_layout_paging.o
 .debug_ranges  0x0000000000001e10       0x18 obj/ux_layout_pb.o
 .debug_ranges  0x0000000000001e28       0x20 obj/ux_layout_pbb.o
 .debug_ranges  0x0000000000001e48       0x18 obj/ux_layout_pnn.o
 .debug_ranges  0x0000000000001e60       0x20 obj/ux_layout_utils.o
 .debug_ranges  0x0000000000001e80       0x58 obj/ux_stack.o
